
build/kernel-x86-qemu.o:     file format elf32-i386


Disassembly of section .text:

00100000 <_putc>:
  100000:	55                   	push   %ebp
  100001:	89 e5                	mov    %esp,%ebp
  100003:	8b 45 08             	mov    0x8(%ebp),%eax
  100006:	ba f8 03 00 00       	mov    $0x3f8,%edx
  10000b:	ee                   	out    %al,(%dx)
  10000c:	5d                   	pop    %ebp
  10000d:	c3                   	ret    
  10000e:	66 90                	xchg   %ax,%ax

00100010 <_halt>:
  100010:	55                   	push   %ebp
  100011:	89 e5                	mov    %esp,%ebp
  100013:	57                   	push   %edi
  100014:	56                   	push   %esi
  100015:	53                   	push   %ebx
  100016:	83 ec 1c             	sub    $0x1c,%esp
  100019:	fa                   	cli    
  10001a:	e8 21 05 00 00       	call   100540 <othercpu_halt>
  10001f:	8d 4d db             	lea    -0x25(%ebp),%ecx
  100022:	ba a0 64 10 00       	mov    $0x1064a0,%edx
  100027:	a1 a0 64 10 00       	mov    0x1064a0,%eax
  10002c:	89 45 db             	mov    %eax,-0x25(%ebp)
  10002f:	a1 a9 64 10 00       	mov    0x1064a9,%eax
  100034:	89 45 e4             	mov    %eax,-0x1c(%ebp)
  100037:	8d 5d dc             	lea    -0x24(%ebp),%ebx
  10003a:	89 c8                	mov    %ecx,%eax
  10003c:	29 d8                	sub    %ebx,%eax
  10003e:	29 c2                	sub    %eax,%edx
  100040:	83 c0 0d             	add    $0xd,%eax
  100043:	83 e0 fc             	and    $0xfffffffc,%eax
  100046:	31 f6                	xor    %esi,%esi
  100048:	8b 3c 32             	mov    (%edx,%esi,1),%edi
  10004b:	89 3c 33             	mov    %edi,(%ebx,%esi,1)
  10004e:	83 c6 04             	add    $0x4,%esi
  100051:	39 c6                	cmp    %eax,%esi
  100053:	72 f3                	jb     100048 <_halt+0x38>
  100055:	b3 78                	mov    $0x78,%bl
  100057:	b8 45 00 00 00       	mov    $0x45,%eax
  10005c:	0f b6 7d 08          	movzbl 0x8(%ebp),%edi
  100060:	8d 57 30             	lea    0x30(%edi),%edx
  100063:	0f be f2             	movsbl %dl,%esi
  100066:	eb 06                	jmp    10006e <_halt+0x5e>
  100068:	0f be c3             	movsbl %bl,%eax
  10006b:	8a 59 01             	mov    0x1(%ecx),%bl
  10006e:	3c 23                	cmp    $0x23,%al
  100070:	75 02                	jne    100074 <_halt+0x64>
  100072:	89 f0                	mov    %esi,%eax
  100074:	ba f8 03 00 00       	mov    $0x3f8,%edx
  100079:	ee                   	out    %al,(%dx)
  10007a:	41                   	inc    %ecx
  10007b:	84 db                	test   %bl,%bl
  10007d:	75 e9                	jne    100068 <_halt+0x58>
  10007f:	e8 74 02 00 00       	call   1002f8 <thiscpu_halt>

00100084 <_start>:
  100084:	55                   	push   %ebp
  100085:	89 e5                	mov    %esp,%ebp
  100087:	83 ec 08             	sub    $0x8,%esp
  10008a:	e8 71 02 00 00       	call   100300 <bootcpu_init>
  10008f:	b8 6f ac 23 00       	mov    $0x23ac6f,%eax
  100094:	25 00 00 f0 ff       	and    $0xfff00000,%eax
  100099:	89 c1                	mov    %eax,%ecx
  10009b:	c7 00 a5 a5 5a 5a    	movl   $0x5a5aa5a5,(%eax)
  1000a1:	8b 10                	mov    (%eax),%edx
  1000a3:	81 fa a5 a5 5a 5a    	cmp    $0x5a5aa5a5,%edx
  1000a9:	75 16                	jne    1000c1 <_start+0x3d>
  1000ab:	90                   	nop
  1000ac:	05 00 00 10 00       	add    $0x100000,%eax
  1000b1:	c7 00 a5 a5 5a 5a    	movl   $0x5a5aa5a5,(%eax)
  1000b7:	8b 10                	mov    (%eax),%edx
  1000b9:	81 fa a5 a5 5a 5a    	cmp    $0x5a5aa5a5,%edx
  1000bf:	74 eb                	je     1000ac <_start+0x28>
  1000c1:	89 0d 84 5e 11 00    	mov    %ecx,0x115e84
  1000c7:	a3 88 5e 11 00       	mov    %eax,0x115e88
  1000cc:	e8 5b 03 00 00       	call   10042c <percpu_initgdt>
  1000d1:	e8 16 00 00 00       	call   1000ec <percpu_initlapic>
  1000d6:	e8 8d 01 00 00       	call   100268 <ioapic_init>
  1000db:	e8 04 2f 00 00       	call   102fe4 <main>
  1000e0:	83 ec 0c             	sub    $0xc,%esp
  1000e3:	50                   	push   %eax
  1000e4:	e8 27 ff ff ff       	call   100010 <_halt>
  1000e9:	66 90                	xchg   %ax,%ax
  1000eb:	90                   	nop

001000ec <percpu_initlapic>:
  1000ec:	55                   	push   %ebp
  1000ed:	89 e5                	mov    %esp,%ebp
  1000ef:	a1 8c 5e 11 00       	mov    0x115e8c,%eax
  1000f4:	c7 80 f0 00 00 00 3f 	movl   $0x13f,0xf0(%eax)
  1000fb:	01 00 00 
  1000fe:	8b 50 20             	mov    0x20(%eax),%edx
  100101:	c7 80 e0 03 00 00 0b 	movl   $0xb,0x3e0(%eax)
  100108:	00 00 00 
  10010b:	8b 50 20             	mov    0x20(%eax),%edx
  10010e:	c7 80 20 03 00 00 20 	movl   $0x20020,0x320(%eax)
  100115:	00 02 00 
  100118:	8b 50 20             	mov    0x20(%eax),%edx
  10011b:	c7 80 80 03 00 00 80 	movl   $0x989680,0x380(%eax)
  100122:	96 98 00 
  100125:	8b 50 20             	mov    0x20(%eax),%edx
  100128:	c7 80 50 03 00 00 00 	movl   $0x10000,0x350(%eax)
  10012f:	00 01 00 
  100132:	8b 50 20             	mov    0x20(%eax),%edx
  100135:	c7 80 60 03 00 00 00 	movl   $0x10000,0x360(%eax)
  10013c:	00 01 00 
  10013f:	8b 50 20             	mov    0x20(%eax),%edx
  100142:	8b 50 30             	mov    0x30(%eax),%edx
  100145:	c1 ea 10             	shr    $0x10,%edx
  100148:	80 fa 03             	cmp    $0x3,%dl
  10014b:	76 0d                	jbe    10015a <percpu_initlapic+0x6e>
  10014d:	c7 80 40 03 00 00 00 	movl   $0x10000,0x340(%eax)
  100154:	00 01 00 
  100157:	8b 50 20             	mov    0x20(%eax),%edx
  10015a:	c7 80 70 03 00 00 33 	movl   $0x33,0x370(%eax)
  100161:	00 00 00 
  100164:	8b 50 20             	mov    0x20(%eax),%edx
  100167:	c7 80 80 02 00 00 00 	movl   $0x0,0x280(%eax)
  10016e:	00 00 00 
  100171:	8b 50 20             	mov    0x20(%eax),%edx
  100174:	c7 80 80 02 00 00 00 	movl   $0x0,0x280(%eax)
  10017b:	00 00 00 
  10017e:	8b 50 20             	mov    0x20(%eax),%edx
  100181:	c7 80 b0 00 00 00 00 	movl   $0x0,0xb0(%eax)
  100188:	00 00 00 
  10018b:	8b 50 20             	mov    0x20(%eax),%edx
  10018e:	c7 80 10 03 00 00 00 	movl   $0x0,0x310(%eax)
  100195:	00 00 00 
  100198:	8b 50 20             	mov    0x20(%eax),%edx
  10019b:	c7 80 00 03 00 00 00 	movl   $0x88500,0x300(%eax)
  1001a2:	85 08 00 
  1001a5:	8b 50 20             	mov    0x20(%eax),%edx
  1001a8:	8b 90 00 03 00 00    	mov    0x300(%eax),%edx
  1001ae:	80 e6 10             	and    $0x10,%dh
  1001b1:	75 f5                	jne    1001a8 <percpu_initlapic+0xbc>
  1001b3:	c7 80 80 00 00 00 00 	movl   $0x0,0x80(%eax)
  1001ba:	00 00 00 
  1001bd:	8b 40 20             	mov    0x20(%eax),%eax
  1001c0:	5d                   	pop    %ebp
  1001c1:	c3                   	ret    
  1001c2:	66 90                	xchg   %ax,%ax

001001c4 <lapic_eoi>:
  1001c4:	55                   	push   %ebp
  1001c5:	89 e5                	mov    %esp,%ebp
  1001c7:	a1 8c 5e 11 00       	mov    0x115e8c,%eax
  1001cc:	85 c0                	test   %eax,%eax
  1001ce:	74 0d                	je     1001dd <lapic_eoi+0x19>
  1001d0:	c7 80 b0 00 00 00 00 	movl   $0x0,0xb0(%eax)
  1001d7:	00 00 00 
  1001da:	8b 40 20             	mov    0x20(%eax),%eax
  1001dd:	5d                   	pop    %ebp
  1001de:	c3                   	ret    
  1001df:	90                   	nop

001001e0 <lapic_bootap>:
  1001e0:	55                   	push   %ebp
  1001e1:	89 e5                	mov    %esp,%ebp
  1001e3:	53                   	push   %ebx
  1001e4:	8b 4d 0c             	mov    0xc(%ebp),%ecx
  1001e7:	b0 0f                	mov    $0xf,%al
  1001e9:	ba 70 00 00 00       	mov    $0x70,%edx
  1001ee:	ee                   	out    %al,(%dx)
  1001ef:	b0 0a                	mov    $0xa,%al
  1001f1:	ba 71 00 00 00       	mov    $0x71,%edx
  1001f6:	ee                   	out    %al,(%dx)
  1001f7:	66 c7 05 67 04 00 00 	movw   $0x0,0x467
  1001fe:	00 00 
  100200:	89 c8                	mov    %ecx,%eax
  100202:	c1 e8 04             	shr    $0x4,%eax
  100205:	66 a3 69 04 00 00    	mov    %ax,0x469
  10020b:	8b 55 08             	mov    0x8(%ebp),%edx
  10020e:	c1 e2 18             	shl    $0x18,%edx
  100211:	a1 8c 5e 11 00       	mov    0x115e8c,%eax
  100216:	89 90 10 03 00 00    	mov    %edx,0x310(%eax)
  10021c:	8b 58 20             	mov    0x20(%eax),%ebx
  10021f:	c7 80 00 03 00 00 00 	movl   $0xc500,0x300(%eax)
  100226:	c5 00 00 
  100229:	8b 58 20             	mov    0x20(%eax),%ebx
  10022c:	c7 80 00 03 00 00 00 	movl   $0x8500,0x300(%eax)
  100233:	85 00 00 
  100236:	8b 58 20             	mov    0x20(%eax),%ebx
  100239:	89 90 10 03 00 00    	mov    %edx,0x310(%eax)
  10023f:	8b 58 20             	mov    0x20(%eax),%ebx
  100242:	c1 e9 0c             	shr    $0xc,%ecx
  100245:	80 cd 06             	or     $0x6,%ch
  100248:	89 88 00 03 00 00    	mov    %ecx,0x300(%eax)
  10024e:	8b 58 20             	mov    0x20(%eax),%ebx
  100251:	89 90 10 03 00 00    	mov    %edx,0x310(%eax)
  100257:	8b 50 20             	mov    0x20(%eax),%edx
  10025a:	89 88 00 03 00 00    	mov    %ecx,0x300(%eax)
  100260:	8b 40 20             	mov    0x20(%eax),%eax
  100263:	5b                   	pop    %ebx
  100264:	5d                   	pop    %ebp
  100265:	c3                   	ret    
  100266:	66 90                	xchg   %ax,%ax

00100268 <ioapic_init>:
  100268:	55                   	push   %ebp
  100269:	89 e5                	mov    %esp,%ebp
  10026b:	53                   	push   %ebx
  10026c:	c7 05 00 4f 11 00 00 	movl   $0xfec00000,0x114f00
  100273:	00 c0 fe 
  100276:	c7 05 00 00 c0 fe 01 	movl   $0x1,0xfec00000
  10027d:	00 00 00 
  100280:	a1 10 00 c0 fe       	mov    0xfec00010,%eax
  100285:	c1 e8 10             	shr    $0x10,%eax
  100288:	0f b6 c0             	movzbl %al,%eax
  10028b:	8d 5c 00 12          	lea    0x12(%eax,%eax,1),%ebx
  10028f:	b8 10 00 00 00       	mov    $0x10,%eax
  100294:	ba 20 00 00 00       	mov    $0x20,%edx
  100299:	8d 76 00             	lea    0x0(%esi),%esi
  10029c:	89 d1                	mov    %edx,%ecx
  10029e:	81 c9 00 00 01 00    	or     $0x10000,%ecx
  1002a4:	a3 00 00 c0 fe       	mov    %eax,0xfec00000
  1002a9:	89 0d 10 00 c0 fe    	mov    %ecx,0xfec00010
  1002af:	8d 48 01             	lea    0x1(%eax),%ecx
  1002b2:	89 0d 00 00 c0 fe    	mov    %ecx,0xfec00000
  1002b8:	c7 05 10 00 c0 fe 00 	movl   $0x0,0xfec00010
  1002bf:	00 00 00 
  1002c2:	42                   	inc    %edx
  1002c3:	83 c0 02             	add    $0x2,%eax
  1002c6:	39 d8                	cmp    %ebx,%eax
  1002c8:	75 d2                	jne    10029c <ioapic_init+0x34>
  1002ca:	5b                   	pop    %ebx
  1002cb:	5d                   	pop    %ebp
  1002cc:	c3                   	ret    
  1002cd:	66 90                	xchg   %ax,%ax
  1002cf:	90                   	nop

001002d0 <ioapic_enable>:
  1002d0:	55                   	push   %ebp
  1002d1:	89 e5                	mov    %esp,%ebp
  1002d3:	8b 45 08             	mov    0x8(%ebp),%eax
  1002d6:	8d 48 20             	lea    0x20(%eax),%ecx
  1002d9:	8d 54 00 10          	lea    0x10(%eax,%eax,1),%edx
  1002dd:	a1 00 4f 11 00       	mov    0x114f00,%eax
  1002e2:	89 10                	mov    %edx,(%eax)
  1002e4:	89 48 10             	mov    %ecx,0x10(%eax)
  1002e7:	8b 4d 0c             	mov    0xc(%ebp),%ecx
  1002ea:	c1 e1 18             	shl    $0x18,%ecx
  1002ed:	42                   	inc    %edx
  1002ee:	89 10                	mov    %edx,(%eax)
  1002f0:	89 48 10             	mov    %ecx,0x10(%eax)
  1002f3:	5d                   	pop    %ebp
  1002f4:	c3                   	ret    
  1002f5:	66 90                	xchg   %ax,%ax
  1002f7:	90                   	nop

001002f8 <thiscpu_halt>:
  1002f8:	55                   	push   %ebp
  1002f9:	89 e5                	mov    %esp,%ebp
  1002fb:	fa                   	cli    
  1002fc:	f4                   	hlt    
  1002fd:	eb fd                	jmp    1002fc <thiscpu_halt+0x4>
  1002ff:	90                   	nop

00100300 <bootcpu_init>:
  100300:	55                   	push   %ebp
  100301:	89 e5                	mov    %esp,%ebp
  100303:	53                   	push   %ebx
  100304:	50                   	push   %eax
  100305:	b8 00 00 0f 00       	mov    $0xf0000,%eax
  10030a:	eb 08                	jmp    100314 <bootcpu_init+0x14>
  10030c:	40                   	inc    %eax
  10030d:	3d ff ff ff 00       	cmp    $0xffffff,%eax
  100312:	74 50                	je     100364 <bootcpu_init+0x64>
  100314:	8b 10                	mov    (%eax),%edx
  100316:	81 fa 5f 4d 50 5f    	cmp    $0x5f504d5f,%edx
  10031c:	75 ee                	jne    10030c <bootcpu_init+0xc>
  10031e:	8b 48 04             	mov    0x4(%eax),%ecx
  100321:	8b 41 24             	mov    0x24(%ecx),%eax
  100324:	a3 8c 5e 11 00       	mov    %eax,0x115e8c
  100329:	8d 51 2c             	lea    0x2c(%ecx),%edx
  10032c:	0f b7 41 04          	movzwl 0x4(%ecx),%eax
  100330:	01 c8                	add    %ecx,%eax
  100332:	39 c2                	cmp    %eax,%edx
  100334:	73 28                	jae    10035e <bootcpu_init+0x5e>
  100336:	66 90                	xchg   %ax,%ax
  100338:	8a 02                	mov    (%edx),%al
  10033a:	84 c0                	test   %al,%al
  10033c:	75 13                	jne    100351 <bootcpu_init+0x51>
  10033e:	83 c2 0c             	add    $0xc,%edx
  100341:	a1 14 4f 11 00       	mov    0x114f14,%eax
  100346:	40                   	inc    %eax
  100347:	a3 14 4f 11 00       	mov    %eax,0x114f14
  10034c:	83 f8 08             	cmp    $0x8,%eax
  10034f:	7f 7d                	jg     1003ce <bootcpu_init+0xce>
  100351:	83 c2 08             	add    $0x8,%edx
  100354:	0f b7 41 04          	movzwl 0x4(%ecx),%eax
  100358:	01 c8                	add    %ecx,%eax
  10035a:	39 c2                	cmp    %eax,%edx
  10035c:	72 da                	jb     100338 <bootcpu_init+0x38>
  10035e:	8b 5d fc             	mov    -0x4(%ebp),%ebx
  100361:	c9                   	leave  
  100362:	c3                   	ret    
  100363:	90                   	nop
  100364:	bb ad 64 10 00       	mov    $0x1064ad,%ebx
  100369:	b8 41 00 00 00       	mov    $0x41,%eax
  10036e:	66 90                	xchg   %ax,%ax
  100370:	83 ec 0c             	sub    $0xc,%esp
  100373:	50                   	push   %eax
  100374:	e8 87 fc ff ff       	call   100000 <_putc>
  100379:	43                   	inc    %ebx
  10037a:	0f be 03             	movsbl (%ebx),%eax
  10037d:	83 c4 10             	add    $0x10,%esp
  100380:	84 c0                	test   %al,%al
  100382:	75 ec                	jne    100370 <bootcpu_init+0x70>
  100384:	bb 00 65 10 00       	mov    $0x106500,%ebx
  100389:	b8 73 00 00 00       	mov    $0x73,%eax
  10038e:	66 90                	xchg   %ax,%ax
  100390:	83 ec 0c             	sub    $0xc,%esp
  100393:	50                   	push   %eax
  100394:	e8 67 fc ff ff       	call   100000 <_putc>
  100399:	43                   	inc    %ebx
  10039a:	0f be 03             	movsbl (%ebx),%eax
  10039d:	83 c4 10             	add    $0x10,%esp
  1003a0:	84 c0                	test   %al,%al
  1003a2:	75 ec                	jne    100390 <bootcpu_init+0x90>
  1003a4:	bb 28 65 10 00       	mov    $0x106528,%ebx
  1003a9:	b8 20 00 00 00       	mov    $0x20,%eax
  1003ae:	66 90                	xchg   %ax,%ax
  1003b0:	83 ec 0c             	sub    $0xc,%esp
  1003b3:	50                   	push   %eax
  1003b4:	e8 47 fc ff ff       	call   100000 <_putc>
  1003b9:	43                   	inc    %ebx
  1003ba:	0f be 03             	movsbl (%ebx),%eax
  1003bd:	83 c4 10             	add    $0x10,%esp
  1003c0:	84 c0                	test   %al,%al
  1003c2:	75 ec                	jne    1003b0 <bootcpu_init+0xb0>
  1003c4:	83 ec 0c             	sub    $0xc,%esp
  1003c7:	6a 01                	push   $0x1
  1003c9:	e8 42 fc ff ff       	call   100010 <_halt>
  1003ce:	bb ad 64 10 00       	mov    $0x1064ad,%ebx
  1003d3:	b8 41 00 00 00       	mov    $0x41,%eax
  1003d8:	83 ec 0c             	sub    $0xc,%esp
  1003db:	50                   	push   %eax
  1003dc:	e8 1f fc ff ff       	call   100000 <_putc>
  1003e1:	43                   	inc    %ebx
  1003e2:	0f be 03             	movsbl (%ebx),%eax
  1003e5:	83 c4 10             	add    $0x10,%esp
  1003e8:	84 c0                	test   %al,%al
  1003ea:	75 ec                	jne    1003d8 <bootcpu_init+0xd8>
  1003ec:	bb b8 64 10 00       	mov    $0x1064b8,%ebx
  1003f1:	b8 63 00 00 00       	mov    $0x63,%eax
  1003f6:	83 ec 0c             	sub    $0xc,%esp
  1003f9:	50                   	push   %eax
  1003fa:	e8 01 fc ff ff       	call   100000 <_putc>
  1003ff:	43                   	inc    %ebx
  100400:	0f be 03             	movsbl (%ebx),%eax
  100403:	83 c4 10             	add    $0x10,%esp
  100406:	84 c0                	test   %al,%al
  100408:	75 ec                	jne    1003f6 <bootcpu_init+0xf6>
  10040a:	bb dc 64 10 00       	mov    $0x1064dc,%ebx
  10040f:	b8 20 00 00 00       	mov    $0x20,%eax
  100414:	83 ec 0c             	sub    $0xc,%esp
  100417:	50                   	push   %eax
  100418:	e8 e3 fb ff ff       	call   100000 <_putc>
  10041d:	43                   	inc    %ebx
  10041e:	0f be 03             	movsbl (%ebx),%eax
  100421:	83 c4 10             	add    $0x10,%esp
  100424:	84 c0                	test   %al,%al
  100426:	75 ec                	jne    100414 <bootcpu_init+0x114>
  100428:	eb 9a                	jmp    1003c4 <bootcpu_init+0xc4>
  10042a:	66 90                	xchg   %ax,%ax

0010042c <percpu_initgdt>:
  10042c:	55                   	push   %ebp
  10042d:	89 e5                	mov    %esp,%ebp
  10042f:	53                   	push   %ebx
  100430:	50                   	push   %eax
  100431:	e8 ea 02 00 00       	call   100720 <_cpu>
  100436:	8d 14 00             	lea    (%eax,%eax,1),%edx
  100439:	01 c2                	add    %eax,%edx
  10043b:	01 d2                	add    %edx,%edx
  10043d:	01 c2                	add    %eax,%edx
  10043f:	8d 14 90             	lea    (%eax,%edx,4),%edx
  100442:	01 d2                	add    %edx,%edx
  100444:	01 d0                	add    %edx,%eax
  100446:	8d 04 c0             	lea    (%eax,%eax,8),%eax
  100449:	8d 1c c5 a4 5e 11 00 	lea    0x115ea4(,%eax,8),%ebx
  100450:	e8 cb 02 00 00       	call   100720 <_cpu>
  100455:	8d 14 00             	lea    (%eax,%eax,1),%edx
  100458:	01 c2                	add    %eax,%edx
  10045a:	01 d2                	add    %edx,%edx
  10045c:	01 c2                	add    %eax,%edx
  10045e:	8d 14 90             	lea    (%eax,%edx,4),%edx
  100461:	01 d2                	add    %edx,%edx
  100463:	01 d0                	add    %edx,%eax
  100465:	8d 04 c0             	lea    (%eax,%eax,8),%eax
  100468:	8d 04 c5 d4 5e 11 00 	lea    0x115ed4(,%eax,8),%eax
  10046f:	c7 43 08 ff ff 00 00 	movl   $0xffff,0x8(%ebx)
  100476:	c7 43 0c 00 9a cf 00 	movl   $0xcf9a00,0xc(%ebx)
  10047d:	c7 43 10 ff ff 00 00 	movl   $0xffff,0x10(%ebx)
  100484:	c7 43 14 00 92 cf 00 	movl   $0xcf9200,0x14(%ebx)
  10048b:	c7 43 18 ff ff 00 00 	movl   $0xffff,0x18(%ebx)
  100492:	c7 43 1c 00 fa cf 00 	movl   $0xcffa00,0x1c(%ebx)
  100499:	c7 43 20 ff ff 00 00 	movl   $0xffff,0x20(%ebx)
  1004a0:	c7 43 24 00 f2 cf 00 	movl   $0xcff200,0x24(%ebx)
  1004a7:	66 c7 43 28 63 00    	movw   $0x63,0x28(%ebx)
  1004ad:	66 89 43 2a          	mov    %ax,0x2a(%ebx)
  1004b1:	89 c2                	mov    %eax,%edx
  1004b3:	c1 ea 10             	shr    $0x10,%edx
  1004b6:	88 53 2c             	mov    %dl,0x2c(%ebx)
  1004b9:	66 c7 43 2d 89 40    	movw   $0x4089,0x2d(%ebx)
  1004bf:	c1 e8 18             	shr    $0x18,%eax
  1004c2:	88 43 2f             	mov    %al,0x2f(%ebx)
  1004c5:	66 c7 05 04 4f 11 00 	movw   $0x2f,0x114f04
  1004cc:	2f 00 
  1004ce:	66 89 1d 06 4f 11 00 	mov    %bx,0x114f06
  1004d5:	c1 eb 10             	shr    $0x10,%ebx
  1004d8:	66 89 1d 08 4f 11 00 	mov    %bx,0x114f08
  1004df:	b8 04 4f 11 00       	mov    $0x114f04,%eax
  1004e4:	0f 01 10             	lgdtl  (%eax)
  1004e7:	b8 28 00 00 00       	mov    $0x28,%eax
  1004ec:	0f 00 d8             	ltr    %ax
  1004ef:	5a                   	pop    %edx
  1004f0:	5b                   	pop    %ebx
  1004f1:	5d                   	pop    %ebp
  1004f2:	c3                   	ret    
  1004f3:	90                   	nop

001004f4 <thiscpu_setstk0>:
  1004f4:	55                   	push   %ebp
  1004f5:	89 e5                	mov    %esp,%ebp
  1004f7:	83 ec 08             	sub    $0x8,%esp
  1004fa:	e8 21 02 00 00       	call   100720 <_cpu>
  1004ff:	8d 14 00             	lea    (%eax,%eax,1),%edx
  100502:	01 c2                	add    %eax,%edx
  100504:	01 d2                	add    %edx,%edx
  100506:	01 c2                	add    %eax,%edx
  100508:	8d 14 90             	lea    (%eax,%edx,4),%edx
  10050b:	01 d2                	add    %edx,%edx
  10050d:	01 d0                	add    %edx,%eax
  10050f:	8d 04 c0             	lea    (%eax,%eax,8),%eax
  100512:	8b 55 08             	mov    0x8(%ebp),%edx
  100515:	89 14 c5 dc 5e 11 00 	mov    %edx,0x115edc(,%eax,8)
  10051c:	e8 ff 01 00 00       	call   100720 <_cpu>
  100521:	8d 14 00             	lea    (%eax,%eax,1),%edx
  100524:	01 c2                	add    %eax,%edx
  100526:	01 d2                	add    %edx,%edx
  100528:	01 c2                	add    %eax,%edx
  10052a:	8d 14 90             	lea    (%eax,%edx,4),%edx
  10052d:	01 d2                	add    %edx,%edx
  10052f:	01 d0                	add    %edx,%eax
  100531:	8d 04 c0             	lea    (%eax,%eax,8),%eax
  100534:	8b 55 0c             	mov    0xc(%ebp),%edx
  100537:	89 14 c5 d8 5e 11 00 	mov    %edx,0x115ed8(,%eax,8)
  10053e:	c9                   	leave  
  10053f:	c3                   	ret    

00100540 <othercpu_halt>:
  100540:	a1 80 80 10 00       	mov    0x108080,%eax
  100545:	c7 00 01 00 00 00    	movl   $0x1,(%eax)
  10054b:	c7 40 04 f8 02 10 00 	movl   $0x1002f8,0x4(%eax)
  100552:	8b 15 14 4f 11 00    	mov    0x114f14,%edx
  100558:	85 d2                	test   %edx,%edx
  10055a:	7e 30                	jle    10058c <othercpu_halt+0x4c>
  10055c:	55                   	push   %ebp
  10055d:	89 e5                	mov    %esp,%ebp
  10055f:	53                   	push   %ebx
  100560:	50                   	push   %eax
  100561:	31 db                	xor    %ebx,%ebx
  100563:	90                   	nop
  100564:	e8 b7 01 00 00       	call   100720 <_cpu>
  100569:	39 d8                	cmp    %ebx,%eax
  10056b:	74 11                	je     10057e <othercpu_halt+0x3e>
  10056d:	83 ec 08             	sub    $0x8,%esp
  100570:	68 00 7c 00 00       	push   $0x7c00
  100575:	53                   	push   %ebx
  100576:	e8 65 fc ff ff       	call   1001e0 <lapic_bootap>
  10057b:	83 c4 10             	add    $0x10,%esp
  10057e:	43                   	inc    %ebx
  10057f:	39 1d 14 4f 11 00    	cmp    %ebx,0x114f14
  100585:	7f dd                	jg     100564 <othercpu_halt+0x24>
  100587:	8b 5d fc             	mov    -0x4(%ebp),%ebx
  10058a:	c9                   	leave  
  10058b:	c3                   	ret    
  10058c:	c3                   	ret    
  10058d:	66 90                	xchg   %ax,%ax
  10058f:	90                   	nop

00100590 <ap_entry>:
  100590:	55                   	push   %ebp
  100591:	89 e5                	mov    %esp,%ebp
  100593:	83 ec 08             	sub    $0x8,%esp
  100596:	e8 91 fe ff ff       	call   10042c <percpu_initgdt>
  10059b:	e8 a4 0d 00 00       	call   101344 <percpu_initirq>
  1005a0:	e8 47 fb ff ff       	call   1000ec <percpu_initlapic>
  1005a5:	e8 c6 10 00 00       	call   101670 <percpu_initpg>
  1005aa:	b8 01 00 00 00       	mov    $0x1,%eax
  1005af:	f0 87 05 0c 4f 11 00 	lock xchg %eax,0x114f0c
  1005b6:	a1 10 4f 11 00       	mov    0x114f10,%eax
  1005bb:	c9                   	leave  
  1005bc:	ff e0                	jmp    *%eax
  1005be:	66 90                	xchg   %ax,%ax

001005c0 <percpu_entry>:
  1005c0:	a1 8c 5e 11 00       	mov    0x115e8c,%eax
  1005c5:	8b 50 20             	mov    0x20(%eax),%edx
  1005c8:	c1 ea 18             	shr    $0x18,%edx
  1005cb:	75 6f                	jne    10063c <percpu_entry+0x7c>
  1005cd:	83 3d 14 4f 11 00 01 	cmpl   $0x1,0x114f14
  1005d4:	0f 8e 8c 00 00 00    	jle    100666 <percpu_entry+0xa6>
  1005da:	55                   	push   %ebp
  1005db:	89 e5                	mov    %esp,%ebp
  1005dd:	56                   	push   %esi
  1005de:	53                   	push   %ebx
  1005df:	be 01 00 00 00       	mov    $0x1,%esi
  1005e4:	31 db                	xor    %ebx,%ebx
  1005e6:	66 90                	xchg   %ax,%ax
  1005e8:	a1 80 80 10 00       	mov    0x108080,%eax
  1005ed:	c7 00 01 00 00 00    	movl   $0x1,(%eax)
  1005f3:	c7 40 04 c0 05 10 00 	movl   $0x1005c0,0x4(%eax)
  1005fa:	83 ec 08             	sub    $0x8,%esp
  1005fd:	68 00 7c 00 00       	push   $0x7c00
  100602:	56                   	push   %esi
  100603:	e8 d8 fb ff ff       	call   1001e0 <lapic_bootap>
  100608:	89 d8                	mov    %ebx,%eax
  10060a:	f0 87 05 0c 4f 11 00 	lock xchg %eax,0x114f0c
  100611:	83 c4 10             	add    $0x10,%esp
  100614:	48                   	dec    %eax
  100615:	74 0f                	je     100626 <percpu_entry+0x66>
  100617:	90                   	nop
  100618:	f3 90                	pause  
  10061a:	89 d8                	mov    %ebx,%eax
  10061c:	f0 87 05 0c 4f 11 00 	lock xchg %eax,0x114f0c
  100623:	48                   	dec    %eax
  100624:	75 f2                	jne    100618 <percpu_entry+0x58>
  100626:	46                   	inc    %esi
  100627:	3b 35 14 4f 11 00    	cmp    0x114f14,%esi
  10062d:	7c b9                	jl     1005e8 <percpu_entry+0x28>
  10062f:	a1 10 4f 11 00       	mov    0x114f10,%eax
  100634:	8d 65 f8             	lea    -0x8(%ebp),%esp
  100637:	5b                   	pop    %ebx
  100638:	5e                   	pop    %esi
  100639:	5d                   	pop    %ebp
  10063a:	ff e0                	jmp    *%eax
  10063c:	8b 40 20             	mov    0x20(%eax),%eax
  10063f:	c1 e8 18             	shr    $0x18,%eax
  100642:	8d 14 00             	lea    (%eax,%eax,1),%edx
  100645:	01 c2                	add    %eax,%edx
  100647:	01 d2                	add    %edx,%edx
  100649:	01 c2                	add    %eax,%edx
  10064b:	8d 14 90             	lea    (%eax,%edx,4),%edx
  10064e:	01 d2                	add    %edx,%edx
  100650:	01 d0                	add    %edx,%eax
  100652:	8d 04 c0             	lea    (%eax,%eax,8),%eax
  100655:	8d 04 c5 38 6f 11 00 	lea    0x116f38(,%eax,8),%eax
  10065c:	ba 90 05 10 00       	mov    $0x100590,%edx
  100661:	89 c4                	mov    %eax,%esp
  100663:	ff d2                	call   *%edx
  100665:	c3                   	ret    
  100666:	ff 25 10 4f 11 00    	jmp    *0x114f10

0010066c <_mpe_init>:
  10066c:	55                   	push   %ebp
  10066d:	89 e5                	mov    %esp,%ebp
  10066f:	53                   	push   %ebx
  100670:	50                   	push   %eax
  100671:	8b 45 08             	mov    0x8(%ebp),%eax
  100674:	a3 10 4f 11 00       	mov    %eax,0x114f10
  100679:	a1 8c 5e 11 00       	mov    0x115e8c,%eax
  10067e:	8b 40 20             	mov    0x20(%eax),%eax
  100681:	c1 e8 18             	shr    $0x18,%eax
  100684:	8d 14 00             	lea    (%eax,%eax,1),%edx
  100687:	01 c2                	add    %eax,%edx
  100689:	01 d2                	add    %edx,%edx
  10068b:	01 c2                	add    %eax,%edx
  10068d:	8d 14 90             	lea    (%eax,%edx,4),%edx
  100690:	01 d2                	add    %edx,%edx
  100692:	01 d0                	add    %edx,%eax
  100694:	8d 04 c0             	lea    (%eax,%eax,8),%eax
  100697:	8d 04 c5 38 6f 11 00 	lea    0x116f38(,%eax,8),%eax
  10069e:	ba c0 05 10 00       	mov    $0x1005c0,%edx
  1006a3:	89 c4                	mov    %eax,%esp
  1006a5:	ff d2                	call   *%edx
  1006a7:	bb ad 64 10 00       	mov    $0x1064ad,%ebx
  1006ac:	b8 41 00 00 00       	mov    $0x41,%eax
  1006b1:	8d 76 00             	lea    0x0(%esi),%esi
  1006b4:	83 ec 0c             	sub    $0xc,%esp
  1006b7:	50                   	push   %eax
  1006b8:	e8 43 f9 ff ff       	call   100000 <_putc>
  1006bd:	43                   	inc    %ebx
  1006be:	0f be 03             	movsbl (%ebx),%eax
  1006c1:	83 c4 10             	add    $0x10,%esp
  1006c4:	84 c0                	test   %al,%al
  1006c6:	75 ec                	jne    1006b4 <_mpe_init+0x48>
  1006c8:	bb 4c 65 10 00       	mov    $0x10654c,%ebx
  1006cd:	b8 62 00 00 00       	mov    $0x62,%eax
  1006d2:	66 90                	xchg   %ax,%ax
  1006d4:	83 ec 0c             	sub    $0xc,%esp
  1006d7:	50                   	push   %eax
  1006d8:	e8 23 f9 ff ff       	call   100000 <_putc>
  1006dd:	43                   	inc    %ebx
  1006de:	0f be 03             	movsbl (%ebx),%eax
  1006e1:	83 c4 10             	add    $0x10,%esp
  1006e4:	84 c0                	test   %al,%al
  1006e6:	75 ec                	jne    1006d4 <_mpe_init+0x68>
  1006e8:	bb 63 65 10 00       	mov    $0x106563,%ebx
  1006ed:	b8 20 00 00 00       	mov    $0x20,%eax
  1006f2:	66 90                	xchg   %ax,%ax
  1006f4:	83 ec 0c             	sub    $0xc,%esp
  1006f7:	50                   	push   %eax
  1006f8:	e8 03 f9 ff ff       	call   100000 <_putc>
  1006fd:	43                   	inc    %ebx
  1006fe:	0f be 03             	movsbl (%ebx),%eax
  100701:	83 c4 10             	add    $0x10,%esp
  100704:	84 c0                	test   %al,%al
  100706:	75 ec                	jne    1006f4 <_mpe_init+0x88>
  100708:	83 ec 0c             	sub    $0xc,%esp
  10070b:	6a 01                	push   $0x1
  10070d:	e8 fe f8 ff ff       	call   100010 <_halt>
  100712:	66 90                	xchg   %ax,%ax

00100714 <_ncpu>:
  100714:	55                   	push   %ebp
  100715:	89 e5                	mov    %esp,%ebp
  100717:	a1 14 4f 11 00       	mov    0x114f14,%eax
  10071c:	5d                   	pop    %ebp
  10071d:	c3                   	ret    
  10071e:	66 90                	xchg   %ax,%ax

00100720 <_cpu>:
  100720:	55                   	push   %ebp
  100721:	89 e5                	mov    %esp,%ebp
  100723:	a1 8c 5e 11 00       	mov    0x115e8c,%eax
  100728:	8b 40 20             	mov    0x20(%eax),%eax
  10072b:	c1 e8 18             	shr    $0x18,%eax
  10072e:	5d                   	pop    %ebp
  10072f:	c3                   	ret    

00100730 <_atomic_xchg>:
  100730:	55                   	push   %ebp
  100731:	89 e5                	mov    %esp,%ebp
  100733:	8b 55 08             	mov    0x8(%ebp),%edx
  100736:	8b 45 0c             	mov    0xc(%ebp),%eax
  100739:	f0 87 02             	lock xchg %eax,(%edx)
  10073c:	5d                   	pop    %ebp
  10073d:	c3                   	ret    
  10073e:	66 90                	xchg   %ax,%ax

00100740 <panic_on_return>:
  100740:	55                   	push   %ebp
  100741:	89 e5                	mov    %esp,%ebp
  100743:	53                   	push   %ebx
  100744:	50                   	push   %eax
  100745:	bb ad 64 10 00       	mov    $0x1064ad,%ebx
  10074a:	b8 41 00 00 00       	mov    $0x41,%eax
  10074f:	90                   	nop
  100750:	83 ec 0c             	sub    $0xc,%esp
  100753:	50                   	push   %eax
  100754:	e8 a7 f8 ff ff       	call   100000 <_putc>
  100759:	43                   	inc    %ebx
  10075a:	0f be 03             	movsbl (%ebx),%eax
  10075d:	83 c4 10             	add    $0x10,%esp
  100760:	84 c0                	test   %al,%al
  100762:	75 ec                	jne    100750 <panic_on_return+0x10>
  100764:	bb 7f 65 10 00       	mov    $0x10657f,%ebx
  100769:	b8 6b 00 00 00       	mov    $0x6b,%eax
  10076e:	66 90                	xchg   %ax,%ax
  100770:	83 ec 0c             	sub    $0xc,%esp
  100773:	50                   	push   %eax
  100774:	e8 87 f8 ff ff       	call   100000 <_putc>
  100779:	43                   	inc    %ebx
  10077a:	0f be 03             	movsbl (%ebx),%eax
  10077d:	83 c4 10             	add    $0x10,%esp
  100780:	84 c0                	test   %al,%al
  100782:	75 ec                	jne    100770 <panic_on_return+0x30>
  100784:	bb 96 65 10 00       	mov    $0x106596,%ebx
  100789:	b8 20 00 00 00       	mov    $0x20,%eax
  10078e:	66 90                	xchg   %ax,%ax
  100790:	83 ec 0c             	sub    $0xc,%esp
  100793:	50                   	push   %eax
  100794:	e8 67 f8 ff ff       	call   100000 <_putc>
  100799:	43                   	inc    %ebx
  10079a:	0f be 03             	movsbl (%ebx),%eax
  10079d:	83 c4 10             	add    $0x10,%esp
  1007a0:	84 c0                	test   %al,%al
  1007a2:	75 ec                	jne    100790 <panic_on_return+0x50>
  1007a4:	83 ec 0c             	sub    $0xc,%esp
  1007a7:	6a 01                	push   $0x1
  1007a9:	e8 62 f8 ff ff       	call   100010 <_halt>
  1007ae:	66 90                	xchg   %ax,%ax

001007b0 <percpu_initirq.part.0>:
  1007b0:	55                   	push   %ebp
  1007b1:	89 e5                	mov    %esp,%ebp
  1007b3:	83 ec 10             	sub    $0x10,%esp
  1007b6:	6a 00                	push   $0x0
  1007b8:	6a 01                	push   $0x1
  1007ba:	e8 11 fb ff ff       	call   1002d0 <ioapic_enable>
  1007bf:	66 c7 05 18 4f 11 00 	movw   $0x7ff,0x114f18
  1007c6:	ff 07 
  1007c8:	b8 20 4f 11 00       	mov    $0x114f20,%eax
  1007cd:	66 a3 1a 4f 11 00    	mov    %ax,0x114f1a
  1007d3:	c1 e8 10             	shr    $0x10,%eax
  1007d6:	66 a3 1c 4f 11 00    	mov    %ax,0x114f1c
  1007dc:	b8 18 4f 11 00       	mov    $0x114f18,%eax
  1007e1:	0f 01 18             	lidtl  (%eax)
  1007e4:	83 c4 10             	add    $0x10,%esp
  1007e7:	c9                   	leave  
  1007e8:	c3                   	ret    
  1007e9:	66 90                	xchg   %ax,%ax
  1007eb:	90                   	nop

001007ec <cte_init>:
  1007ec:	55                   	push   %ebp
  1007ed:	89 e5                	mov    %esp,%ebp
  1007ef:	53                   	push   %ebx
  1007f0:	50                   	push   %eax
  1007f1:	8b 5d 08             	mov    0x8(%ebp),%ebx
  1007f4:	e8 27 ff ff ff       	call   100720 <_cpu>
  1007f9:	85 c0                	test   %eax,%eax
  1007fb:	0f 85 91 04 00 00    	jne    100c92 <cte_init+0x4a6>
  100801:	ba 97 14 10 00       	mov    $0x101497,%edx
  100806:	89 d1                	mov    %edx,%ecx
  100808:	c1 e9 10             	shr    $0x10,%ecx
  10080b:	90                   	nop
  10080c:	66 89 14 c5 20 4f 11 	mov    %dx,0x114f20(,%eax,8)
  100813:	00 
  100814:	c7 04 c5 22 4f 11 00 	movl   $0x8f000008,0x114f22(,%eax,8)
  10081b:	08 00 00 8f 
  10081f:	66 89 0c c5 26 4f 11 	mov    %cx,0x114f26(,%eax,8)
  100826:	00 
  100827:	40                   	inc    %eax
  100828:	3d 00 01 00 00       	cmp    $0x100,%eax
  10082d:	75 dd                	jne    10080c <cte_init+0x20>
  10082f:	b8 6b 13 10 00       	mov    $0x10136b,%eax
  100834:	66 a3 20 4f 11 00    	mov    %ax,0x114f20
  10083a:	c7 05 22 4f 11 00 08 	movl   $0x8f000008,0x114f22
  100841:	00 00 8f 
  100844:	c1 e8 10             	shr    $0x10,%eax
  100847:	66 a3 26 4f 11 00    	mov    %ax,0x114f26
  10084d:	b8 72 13 10 00       	mov    $0x101372,%eax
  100852:	66 a3 28 4f 11 00    	mov    %ax,0x114f28
  100858:	c7 05 2a 4f 11 00 08 	movl   $0x8f000008,0x114f2a
  10085f:	00 00 8f 
  100862:	c1 e8 10             	shr    $0x10,%eax
  100865:	66 a3 2e 4f 11 00    	mov    %ax,0x114f2e
  10086b:	b8 79 13 10 00       	mov    $0x101379,%eax
  100870:	66 a3 30 4f 11 00    	mov    %ax,0x114f30
  100876:	c7 05 32 4f 11 00 08 	movl   $0x8f000008,0x114f32
  10087d:	00 00 8f 
  100880:	c1 e8 10             	shr    $0x10,%eax
  100883:	66 a3 36 4f 11 00    	mov    %ax,0x114f36
  100889:	b8 80 13 10 00       	mov    $0x101380,%eax
  10088e:	66 a3 38 4f 11 00    	mov    %ax,0x114f38
  100894:	c7 05 3a 4f 11 00 08 	movl   $0x8f000008,0x114f3a
  10089b:	00 00 8f 
  10089e:	c1 e8 10             	shr    $0x10,%eax
  1008a1:	66 a3 3e 4f 11 00    	mov    %ax,0x114f3e
  1008a7:	b8 87 13 10 00       	mov    $0x101387,%eax
  1008ac:	66 a3 40 4f 11 00    	mov    %ax,0x114f40
  1008b2:	c7 05 42 4f 11 00 08 	movl   $0x8f000008,0x114f42
  1008b9:	00 00 8f 
  1008bc:	c1 e8 10             	shr    $0x10,%eax
  1008bf:	66 a3 46 4f 11 00    	mov    %ax,0x114f46
  1008c5:	b8 8e 13 10 00       	mov    $0x10138e,%eax
  1008ca:	66 a3 48 4f 11 00    	mov    %ax,0x114f48
  1008d0:	c7 05 4a 4f 11 00 08 	movl   $0x8f000008,0x114f4a
  1008d7:	00 00 8f 
  1008da:	c1 e8 10             	shr    $0x10,%eax
  1008dd:	66 a3 4e 4f 11 00    	mov    %ax,0x114f4e
  1008e3:	b8 95 13 10 00       	mov    $0x101395,%eax
  1008e8:	66 a3 50 4f 11 00    	mov    %ax,0x114f50
  1008ee:	c7 05 52 4f 11 00 08 	movl   $0x8f000008,0x114f52
  1008f5:	00 00 8f 
  1008f8:	c1 e8 10             	shr    $0x10,%eax
  1008fb:	66 a3 56 4f 11 00    	mov    %ax,0x114f56
  100901:	b8 9c 13 10 00       	mov    $0x10139c,%eax
  100906:	66 a3 58 4f 11 00    	mov    %ax,0x114f58
  10090c:	c7 05 5a 4f 11 00 08 	movl   $0x8f000008,0x114f5a
  100913:	00 00 8f 
  100916:	c1 e8 10             	shr    $0x10,%eax
  100919:	66 a3 5e 4f 11 00    	mov    %ax,0x114f5e
  10091f:	b8 a3 13 10 00       	mov    $0x1013a3,%eax
  100924:	66 a3 60 4f 11 00    	mov    %ax,0x114f60
  10092a:	c7 05 62 4f 11 00 08 	movl   $0x8f000008,0x114f62
  100931:	00 00 8f 
  100934:	c1 e8 10             	shr    $0x10,%eax
  100937:	66 a3 66 4f 11 00    	mov    %ax,0x114f66
  10093d:	b8 a8 13 10 00       	mov    $0x1013a8,%eax
  100942:	66 a3 68 4f 11 00    	mov    %ax,0x114f68
  100948:	66 c7 05 6a 4f 11 00 	movw   $0x8,0x114f6a
  10094f:	08 00 
  100951:	66 c7 05 6c 4f 11 00 	movw   $0x8f00,0x114f6c
  100958:	00 8f 
  10095a:	c1 e8 10             	shr    $0x10,%eax
  10095d:	66 a3 6e 4f 11 00    	mov    %ax,0x114f6e
  100963:	b8 af 13 10 00       	mov    $0x1013af,%eax
  100968:	66 a3 70 4f 11 00    	mov    %ax,0x114f70
  10096e:	c7 05 72 4f 11 00 08 	movl   $0x8f000008,0x114f72
  100975:	00 00 8f 
  100978:	c1 e8 10             	shr    $0x10,%eax
  10097b:	66 a3 76 4f 11 00    	mov    %ax,0x114f76
  100981:	b8 b4 13 10 00       	mov    $0x1013b4,%eax
  100986:	66 a3 78 4f 11 00    	mov    %ax,0x114f78
  10098c:	c7 05 7a 4f 11 00 08 	movl   $0x8f000008,0x114f7a
  100993:	00 00 8f 
  100996:	c1 e8 10             	shr    $0x10,%eax
  100999:	66 a3 7e 4f 11 00    	mov    %ax,0x114f7e
  10099f:	b8 b9 13 10 00       	mov    $0x1013b9,%eax
  1009a4:	66 a3 80 4f 11 00    	mov    %ax,0x114f80
  1009aa:	c7 05 82 4f 11 00 08 	movl   $0x8f000008,0x114f82
  1009b1:	00 00 8f 
  1009b4:	c1 e8 10             	shr    $0x10,%eax
  1009b7:	66 a3 86 4f 11 00    	mov    %ax,0x114f86
  1009bd:	b8 be 13 10 00       	mov    $0x1013be,%eax
  1009c2:	66 a3 88 4f 11 00    	mov    %ax,0x114f88
  1009c8:	c7 05 8a 4f 11 00 08 	movl   $0x8f000008,0x114f8a
  1009cf:	00 00 8f 
  1009d2:	c1 e8 10             	shr    $0x10,%eax
  1009d5:	66 a3 8e 4f 11 00    	mov    %ax,0x114f8e
  1009db:	b8 c3 13 10 00       	mov    $0x1013c3,%eax
  1009e0:	66 a3 90 4f 11 00    	mov    %ax,0x114f90
  1009e6:	c7 05 92 4f 11 00 08 	movl   $0x8f000008,0x114f92
  1009ed:	00 00 8f 
  1009f0:	c1 e8 10             	shr    $0x10,%eax
  1009f3:	66 a3 96 4f 11 00    	mov    %ax,0x114f96
  1009f9:	b8 c8 13 10 00       	mov    $0x1013c8,%eax
  1009fe:	66 a3 98 4f 11 00    	mov    %ax,0x114f98
  100a04:	c7 05 9a 4f 11 00 08 	movl   $0x8f000008,0x114f9a
  100a0b:	00 00 8f 
  100a0e:	c1 e8 10             	shr    $0x10,%eax
  100a11:	66 a3 9e 4f 11 00    	mov    %ax,0x114f9e
  100a17:	b8 cf 13 10 00       	mov    $0x1013cf,%eax
  100a1c:	66 a3 a0 4f 11 00    	mov    %ax,0x114fa0
  100a22:	c7 05 a2 4f 11 00 08 	movl   $0x8f000008,0x114fa2
  100a29:	00 00 8f 
  100a2c:	c1 e8 10             	shr    $0x10,%eax
  100a2f:	66 a3 a6 4f 11 00    	mov    %ax,0x114fa6
  100a35:	b8 d6 13 10 00       	mov    $0x1013d6,%eax
  100a3a:	66 a3 b8 4f 11 00    	mov    %ax,0x114fb8
  100a40:	c7 05 ba 4f 11 00 08 	movl   $0x8f000008,0x114fba
  100a47:	00 00 8f 
  100a4a:	c1 e8 10             	shr    $0x10,%eax
  100a4d:	66 a3 be 4f 11 00    	mov    %ax,0x114fbe
  100a53:	b8 e0 13 10 00       	mov    $0x1013e0,%eax
  100a58:	66 a3 18 50 11 00    	mov    %ax,0x115018
  100a5e:	66 c7 05 1a 50 11 00 	movw   $0x8,0x11501a
  100a65:	08 00 
  100a67:	c6 05 1c 50 11 00 00 	movb   $0x0,0x11501c
  100a6e:	c6 05 1d 50 11 00 8f 	movb   $0x8f,0x11501d
  100a75:	c1 e8 10             	shr    $0x10,%eax
  100a78:	66 a3 1e 50 11 00    	mov    %ax,0x11501e
  100a7e:	b8 ea 13 10 00       	mov    $0x1013ea,%eax
  100a83:	66 a3 20 50 11 00    	mov    %ax,0x115020
  100a89:	c7 05 22 50 11 00 08 	movl   $0x8f000008,0x115022
  100a90:	00 00 8f 
  100a93:	c1 e8 10             	shr    $0x10,%eax
  100a96:	66 a3 26 50 11 00    	mov    %ax,0x115026
  100a9c:	b8 f4 13 10 00       	mov    $0x1013f4,%eax
  100aa1:	66 a3 28 50 11 00    	mov    %ax,0x115028
  100aa7:	c7 05 2a 50 11 00 08 	movl   $0x8f000008,0x11502a
  100aae:	00 00 8f 
  100ab1:	c1 e8 10             	shr    $0x10,%eax
  100ab4:	66 a3 2e 50 11 00    	mov    %ax,0x11502e
  100aba:	b8 fe 13 10 00       	mov    $0x1013fe,%eax
  100abf:	66 a3 30 50 11 00    	mov    %ax,0x115030
  100ac5:	c7 05 32 50 11 00 08 	movl   $0x8f000008,0x115032
  100acc:	00 00 8f 
  100acf:	c1 e8 10             	shr    $0x10,%eax
  100ad2:	66 a3 36 50 11 00    	mov    %ax,0x115036
  100ad8:	b8 08 14 10 00       	mov    $0x101408,%eax
  100add:	66 a3 38 50 11 00    	mov    %ax,0x115038
  100ae3:	c7 05 3a 50 11 00 08 	movl   $0x8f000008,0x11503a
  100aea:	00 00 8f 
  100aed:	c1 e8 10             	shr    $0x10,%eax
  100af0:	66 a3 3e 50 11 00    	mov    %ax,0x11503e
  100af6:	b8 12 14 10 00       	mov    $0x101412,%eax
  100afb:	66 a3 40 50 11 00    	mov    %ax,0x115040
  100b01:	c7 05 42 50 11 00 08 	movl   $0x8f000008,0x115042
  100b08:	00 00 8f 
  100b0b:	c1 e8 10             	shr    $0x10,%eax
  100b0e:	66 a3 46 50 11 00    	mov    %ax,0x115046
  100b14:	b8 1c 14 10 00       	mov    $0x10141c,%eax
  100b19:	66 a3 48 50 11 00    	mov    %ax,0x115048
  100b1f:	c7 05 4a 50 11 00 08 	movl   $0x8f000008,0x11504a
  100b26:	00 00 8f 
  100b29:	c1 e8 10             	shr    $0x10,%eax
  100b2c:	66 a3 4e 50 11 00    	mov    %ax,0x11504e
  100b32:	b8 26 14 10 00       	mov    $0x101426,%eax
  100b37:	66 a3 50 50 11 00    	mov    %ax,0x115050
  100b3d:	c7 05 52 50 11 00 08 	movl   $0x8f000008,0x115052
  100b44:	00 00 8f 
  100b47:	c1 e8 10             	shr    $0x10,%eax
  100b4a:	66 a3 56 50 11 00    	mov    %ax,0x115056
  100b50:	b8 30 14 10 00       	mov    $0x101430,%eax
  100b55:	66 a3 58 50 11 00    	mov    %ax,0x115058
  100b5b:	c7 05 5a 50 11 00 08 	movl   $0x8f000008,0x11505a
  100b62:	00 00 8f 
  100b65:	c1 e8 10             	shr    $0x10,%eax
  100b68:	66 a3 5e 50 11 00    	mov    %ax,0x11505e
  100b6e:	b8 3a 14 10 00       	mov    $0x10143a,%eax
  100b73:	66 a3 60 50 11 00    	mov    %ax,0x115060
  100b79:	c7 05 62 50 11 00 08 	movl   $0x8f000008,0x115062
  100b80:	00 00 8f 
  100b83:	c1 e8 10             	shr    $0x10,%eax
  100b86:	66 a3 66 50 11 00    	mov    %ax,0x115066
  100b8c:	b8 44 14 10 00       	mov    $0x101444,%eax
  100b91:	66 a3 68 50 11 00    	mov    %ax,0x115068
  100b97:	c7 05 6a 50 11 00 08 	movl   $0x8f000008,0x11506a
  100b9e:	00 00 8f 
  100ba1:	c1 e8 10             	shr    $0x10,%eax
  100ba4:	66 a3 6e 50 11 00    	mov    %ax,0x11506e
  100baa:	b8 4e 14 10 00       	mov    $0x10144e,%eax
  100baf:	66 a3 70 50 11 00    	mov    %ax,0x115070
  100bb5:	c7 05 72 50 11 00 08 	movl   $0x8f000008,0x115072
  100bbc:	00 00 8f 
  100bbf:	c1 e8 10             	shr    $0x10,%eax
  100bc2:	66 a3 76 50 11 00    	mov    %ax,0x115076
  100bc8:	b8 58 14 10 00       	mov    $0x101458,%eax
  100bcd:	66 a3 78 50 11 00    	mov    %ax,0x115078
  100bd3:	c7 05 7a 50 11 00 08 	movl   $0x8f000008,0x11507a
  100bda:	00 00 8f 
  100bdd:	c1 e8 10             	shr    $0x10,%eax
  100be0:	66 a3 7e 50 11 00    	mov    %ax,0x11507e
  100be6:	b8 62 14 10 00       	mov    $0x101462,%eax
  100beb:	66 a3 80 50 11 00    	mov    %ax,0x115080
  100bf1:	c7 05 82 50 11 00 08 	movl   $0x8f000008,0x115082
  100bf8:	00 00 8f 
  100bfb:	c1 e8 10             	shr    $0x10,%eax
  100bfe:	66 a3 86 50 11 00    	mov    %ax,0x115086
  100c04:	b8 6c 14 10 00       	mov    $0x10146c,%eax
  100c09:	66 a3 88 50 11 00    	mov    %ax,0x115088
  100c0f:	c7 05 8a 50 11 00 08 	movl   $0x8f000008,0x11508a
  100c16:	00 00 8f 
  100c19:	c1 e8 10             	shr    $0x10,%eax
  100c1c:	66 a3 8e 50 11 00    	mov    %ax,0x11508e
  100c22:	b8 76 14 10 00       	mov    $0x101476,%eax
  100c27:	66 a3 90 50 11 00    	mov    %ax,0x115090
  100c2d:	c7 05 92 50 11 00 08 	movl   $0x8f000008,0x115092
  100c34:	00 00 8f 
  100c37:	c1 e8 10             	shr    $0x10,%eax
  100c3a:	66 a3 96 50 11 00    	mov    %ax,0x115096
  100c40:	b8 80 14 10 00       	mov    $0x101480,%eax
  100c45:	66 a3 98 50 11 00    	mov    %ax,0x115098
  100c4b:	c7 05 9a 50 11 00 08 	movl   $0x8f000008,0x11509a
  100c52:	00 00 8f 
  100c55:	c1 e8 10             	shr    $0x10,%eax
  100c58:	66 a3 9e 50 11 00    	mov    %ax,0x11509e
  100c5e:	b8 8a 14 10 00       	mov    $0x10148a,%eax
  100c63:	66 a3 20 53 11 00    	mov    %ax,0x115320
  100c69:	c7 05 22 53 11 00 08 	movl   $0xef000008,0x115322
  100c70:	00 00 ef 
  100c73:	c1 e8 10             	shr    $0x10,%eax
  100c76:	66 a3 26 53 11 00    	mov    %ax,0x115326
  100c7c:	89 1d 20 57 11 00    	mov    %ebx,0x115720
  100c82:	85 db                	test   %ebx,%ebx
  100c84:	74 05                	je     100c8b <cte_init+0x49f>
  100c86:	e8 25 fb ff ff       	call   1007b0 <percpu_initirq.part.0>
  100c8b:	31 c0                	xor    %eax,%eax
  100c8d:	8b 5d fc             	mov    -0x4(%ebp),%ebx
  100c90:	c9                   	leave  
  100c91:	c3                   	ret    
  100c92:	bb ad 64 10 00       	mov    $0x1064ad,%ebx
  100c97:	b8 41 00 00 00       	mov    $0x41,%eax
  100c9c:	83 ec 0c             	sub    $0xc,%esp
  100c9f:	50                   	push   %eax
  100ca0:	e8 5b f3 ff ff       	call   100000 <_putc>
  100ca5:	43                   	inc    %ebx
  100ca6:	0f be 03             	movsbl (%ebx),%eax
  100ca9:	83 c4 10             	add    $0x10,%esp
  100cac:	84 c0                	test   %al,%al
  100cae:	75 ec                	jne    100c9c <cte_init+0x4b0>
  100cb0:	bb b2 65 10 00       	mov    $0x1065b2,%ebx
  100cb5:	b8 69 00 00 00       	mov    $0x69,%eax
  100cba:	83 ec 0c             	sub    $0xc,%esp
  100cbd:	50                   	push   %eax
  100cbe:	e8 3d f3 ff ff       	call   100000 <_putc>
  100cc3:	43                   	inc    %ebx
  100cc4:	0f be 03             	movsbl (%ebx),%eax
  100cc7:	83 c4 10             	add    $0x10,%esp
  100cca:	84 c0                	test   %al,%al
  100ccc:	75 ec                	jne    100cba <cte_init+0x4ce>
  100cce:	bb d0 65 10 00       	mov    $0x1065d0,%ebx
  100cd3:	b8 20 00 00 00       	mov    $0x20,%eax
  100cd8:	83 ec 0c             	sub    $0xc,%esp
  100cdb:	50                   	push   %eax
  100cdc:	e8 1f f3 ff ff       	call   100000 <_putc>
  100ce1:	43                   	inc    %ebx
  100ce2:	0f be 03             	movsbl (%ebx),%eax
  100ce5:	83 c4 10             	add    $0x10,%esp
  100ce8:	84 c0                	test   %al,%al
  100cea:	75 ec                	jne    100cd8 <cte_init+0x4ec>
  100cec:	83 ec 0c             	sub    $0xc,%esp
  100cef:	6a 01                	push   $0x1
  100cf1:	e8 1a f3 ff ff       	call   100010 <_halt>
  100cf6:	66 90                	xchg   %ax,%ax

00100cf8 <yield>:
  100cf8:	8b 15 20 57 11 00    	mov    0x115720,%edx
  100cfe:	85 d2                	test   %edx,%edx
  100d00:	74 08                	je     100d0a <yield+0x12>
  100d02:	b8 ff ff ff ff       	mov    $0xffffffff,%eax
  100d07:	cd 80                	int    $0x80
  100d09:	c3                   	ret    
  100d0a:	55                   	push   %ebp
  100d0b:	89 e5                	mov    %esp,%ebp
  100d0d:	53                   	push   %ebx
  100d0e:	50                   	push   %eax
  100d0f:	bb ad 64 10 00       	mov    $0x1064ad,%ebx
  100d14:	b8 41 00 00 00       	mov    $0x41,%eax
  100d19:	83 ec 0c             	sub    $0xc,%esp
  100d1c:	50                   	push   %eax
  100d1d:	e8 de f2 ff ff       	call   100000 <_putc>
  100d22:	43                   	inc    %ebx
  100d23:	0f be 03             	movsbl (%ebx),%eax
  100d26:	83 c4 10             	add    $0x10,%esp
  100d29:	84 c0                	test   %al,%al
  100d2b:	75 ec                	jne    100d19 <yield+0x21>
  100d2d:	bb ec 65 10 00       	mov    $0x1065ec,%ebx
  100d32:	b8 6e 00 00 00       	mov    $0x6e,%eax
  100d37:	83 ec 0c             	sub    $0xc,%esp
  100d3a:	50                   	push   %eax
  100d3b:	e8 c0 f2 ff ff       	call   100000 <_putc>
  100d40:	43                   	inc    %ebx
  100d41:	0f be 03             	movsbl (%ebx),%eax
  100d44:	83 c4 10             	add    $0x10,%esp
  100d47:	84 c0                	test   %al,%al
  100d49:	75 ec                	jne    100d37 <yield+0x3f>
  100d4b:	bb 01 66 10 00       	mov    $0x106601,%ebx
  100d50:	b8 20 00 00 00       	mov    $0x20,%eax
  100d55:	83 ec 0c             	sub    $0xc,%esp
  100d58:	50                   	push   %eax
  100d59:	e8 a2 f2 ff ff       	call   100000 <_putc>
  100d5e:	43                   	inc    %ebx
  100d5f:	0f be 03             	movsbl (%ebx),%eax
  100d62:	83 c4 10             	add    $0x10,%esp
  100d65:	84 c0                	test   %al,%al
  100d67:	75 ec                	jne    100d55 <yield+0x5d>
  100d69:	83 ec 0c             	sub    $0xc,%esp
  100d6c:	6a 01                	push   $0x1
  100d6e:	e8 9d f2 ff ff       	call   100010 <_halt>
  100d73:	90                   	nop

00100d74 <intr_read>:
  100d74:	55                   	push   %ebp
  100d75:	89 e5                	mov    %esp,%ebp
  100d77:	53                   	push   %ebx
  100d78:	83 ec 14             	sub    $0x14,%esp
  100d7b:	a1 20 57 11 00       	mov    0x115720,%eax
  100d80:	85 c0                	test   %eax,%eax
  100d82:	74 13                	je     100d97 <intr_read+0x23>
  100d84:	9c                   	pushf  
  100d85:	58                   	pop    %eax
  100d86:	89 45 f4             	mov    %eax,-0xc(%ebp)
  100d89:	8b 45 f4             	mov    -0xc(%ebp),%eax
  100d8c:	c1 e8 09             	shr    $0x9,%eax
  100d8f:	83 e0 01             	and    $0x1,%eax
  100d92:	8b 5d fc             	mov    -0x4(%ebp),%ebx
  100d95:	c9                   	leave  
  100d96:	c3                   	ret    
  100d97:	bb ad 64 10 00       	mov    $0x1064ad,%ebx
  100d9c:	b8 41 00 00 00       	mov    $0x41,%eax
  100da1:	83 ec 0c             	sub    $0xc,%esp
  100da4:	50                   	push   %eax
  100da5:	e8 56 f2 ff ff       	call   100000 <_putc>
  100daa:	43                   	inc    %ebx
  100dab:	0f be 03             	movsbl (%ebx),%eax
  100dae:	83 c4 10             	add    $0x10,%esp
  100db1:	84 c0                	test   %al,%al
  100db3:	75 ec                	jne    100da1 <intr_read+0x2d>
  100db5:	bb ec 65 10 00       	mov    $0x1065ec,%ebx
  100dba:	b8 6e 00 00 00       	mov    $0x6e,%eax
  100dbf:	83 ec 0c             	sub    $0xc,%esp
  100dc2:	50                   	push   %eax
  100dc3:	e8 38 f2 ff ff       	call   100000 <_putc>
  100dc8:	43                   	inc    %ebx
  100dc9:	0f be 03             	movsbl (%ebx),%eax
  100dcc:	83 c4 10             	add    $0x10,%esp
  100dcf:	84 c0                	test   %al,%al
  100dd1:	75 ec                	jne    100dbf <intr_read+0x4b>
  100dd3:	bb 1d 66 10 00       	mov    $0x10661d,%ebx
  100dd8:	b8 20 00 00 00       	mov    $0x20,%eax
  100ddd:	83 ec 0c             	sub    $0xc,%esp
  100de0:	50                   	push   %eax
  100de1:	e8 1a f2 ff ff       	call   100000 <_putc>
  100de6:	43                   	inc    %ebx
  100de7:	0f be 03             	movsbl (%ebx),%eax
  100dea:	83 c4 10             	add    $0x10,%esp
  100ded:	84 c0                	test   %al,%al
  100def:	75 ec                	jne    100ddd <intr_read+0x69>
  100df1:	83 ec 0c             	sub    $0xc,%esp
  100df4:	6a 01                	push   $0x1
  100df6:	e8 15 f2 ff ff       	call   100010 <_halt>
  100dfb:	90                   	nop

00100dfc <intr_write>:
  100dfc:	55                   	push   %ebp
  100dfd:	89 e5                	mov    %esp,%ebp
  100dff:	53                   	push   %ebx
  100e00:	52                   	push   %edx
  100e01:	8b 0d 20 57 11 00    	mov    0x115720,%ecx
  100e07:	85 c9                	test   %ecx,%ecx
  100e09:	74 13                	je     100e1e <intr_write+0x22>
  100e0b:	8b 45 08             	mov    0x8(%ebp),%eax
  100e0e:	85 c0                	test   %eax,%eax
  100e10:	75 06                	jne    100e18 <intr_write+0x1c>
  100e12:	fa                   	cli    
  100e13:	8b 5d fc             	mov    -0x4(%ebp),%ebx
  100e16:	c9                   	leave  
  100e17:	c3                   	ret    
  100e18:	fb                   	sti    
  100e19:	8b 5d fc             	mov    -0x4(%ebp),%ebx
  100e1c:	c9                   	leave  
  100e1d:	c3                   	ret    
  100e1e:	bb ad 64 10 00       	mov    $0x1064ad,%ebx
  100e23:	b8 41 00 00 00       	mov    $0x41,%eax
  100e28:	83 ec 0c             	sub    $0xc,%esp
  100e2b:	50                   	push   %eax
  100e2c:	e8 cf f1 ff ff       	call   100000 <_putc>
  100e31:	43                   	inc    %ebx
  100e32:	0f be 03             	movsbl (%ebx),%eax
  100e35:	83 c4 10             	add    $0x10,%esp
  100e38:	84 c0                	test   %al,%al
  100e3a:	75 ec                	jne    100e28 <intr_write+0x2c>
  100e3c:	bb ec 65 10 00       	mov    $0x1065ec,%ebx
  100e41:	b8 6e 00 00 00       	mov    $0x6e,%eax
  100e46:	83 ec 0c             	sub    $0xc,%esp
  100e49:	50                   	push   %eax
  100e4a:	e8 b1 f1 ff ff       	call   100000 <_putc>
  100e4f:	43                   	inc    %ebx
  100e50:	0f be 03             	movsbl (%ebx),%eax
  100e53:	83 c4 10             	add    $0x10,%esp
  100e56:	84 c0                	test   %al,%al
  100e58:	75 ec                	jne    100e46 <intr_write+0x4a>
  100e5a:	bb 39 66 10 00       	mov    $0x106639,%ebx
  100e5f:	b8 20 00 00 00       	mov    $0x20,%eax
  100e64:	83 ec 0c             	sub    $0xc,%esp
  100e67:	50                   	push   %eax
  100e68:	e8 93 f1 ff ff       	call   100000 <_putc>
  100e6d:	43                   	inc    %ebx
  100e6e:	0f be 03             	movsbl (%ebx),%eax
  100e71:	83 c4 10             	add    $0x10,%esp
  100e74:	84 c0                	test   %al,%al
  100e76:	75 ec                	jne    100e64 <intr_write+0x68>
  100e78:	83 ec 0c             	sub    $0xc,%esp
  100e7b:	6a 01                	push   $0x1
  100e7d:	e8 8e f1 ff ff       	call   100010 <_halt>
  100e82:	66 90                	xchg   %ax,%ax

00100e84 <kcontext>:
  100e84:	55                   	push   %ebp
  100e85:	89 e5                	mov    %esp,%ebp
  100e87:	8b 45 08             	mov    0x8(%ebp),%eax
  100e8a:	8b 55 0c             	mov    0xc(%ebp),%edx
  100e8d:	c7 00 00 00 00 00    	movl   $0x0,(%eax)
  100e93:	c7 40 04 00 00 00 00 	movl   $0x0,0x4(%eax)
  100e9a:	c7 40 08 00 00 00 00 	movl   $0x0,0x8(%eax)
  100ea1:	c7 40 0c 00 00 00 00 	movl   $0x0,0xc(%eax)
  100ea8:	c7 40 10 00 00 00 00 	movl   $0x0,0x10(%eax)
  100eaf:	c7 40 14 00 00 00 00 	movl   $0x0,0x14(%eax)
  100eb6:	c7 40 18 00 00 00 00 	movl   $0x0,0x18(%eax)
  100ebd:	c7 40 1c 00 00 00 00 	movl   $0x0,0x1c(%eax)
  100ec4:	c7 40 20 00 00 00 00 	movl   $0x0,0x20(%eax)
  100ecb:	8b 4d 10             	mov    0x10(%ebp),%ecx
  100ece:	89 48 24             	mov    %ecx,0x24(%eax)
  100ed1:	c7 40 28 00 02 00 00 	movl   $0x200,0x28(%eax)
  100ed8:	c7 40 2c 08 00 00 00 	movl   $0x8,0x2c(%eax)
  100edf:	c7 40 30 10 00 00 00 	movl   $0x10,0x30(%eax)
  100ee6:	c7 40 34 10 00 00 00 	movl   $0x10,0x34(%eax)
  100eed:	c7 40 38 10 00 00 00 	movl   $0x10,0x38(%eax)
  100ef4:	c7 40 3c 00 00 00 00 	movl   $0x0,0x3c(%eax)
  100efb:	8d 4a f8             	lea    -0x8(%edx),%ecx
  100efe:	89 48 40             	mov    %ecx,0x40(%eax)
  100f01:	c7 42 f8 40 07 10 00 	movl   $0x100740,-0x8(%edx)
  100f08:	8b 50 40             	mov    0x40(%eax),%edx
  100f0b:	8b 4d 14             	mov    0x14(%ebp),%ecx
  100f0e:	89 4a 04             	mov    %ecx,0x4(%edx)
  100f11:	5d                   	pop    %ebp
  100f12:	c3                   	ret    
  100f13:	90                   	nop

00100f14 <_cb_irq>:
  100f14:	55                   	push   %ebp
  100f15:	89 e5                	mov    %esp,%ebp
  100f17:	83 ec 14             	sub    $0x14,%esp
  100f1a:	ff 75 18             	pushl  0x18(%ebp)
  100f1d:	83 ec 10             	sub    $0x10,%esp
  100f20:	89 e2                	mov    %esp,%edx
  100f22:	31 c0                	xor    %eax,%eax
  100f24:	8b 4c 05 08          	mov    0x8(%ebp,%eax,1),%ecx
  100f28:	89 0c 02             	mov    %ecx,(%edx,%eax,1)
  100f2b:	83 c0 04             	add    $0x4,%eax
  100f2e:	83 f8 10             	cmp    $0x10,%eax
  100f31:	72 f1                	jb     100f24 <_cb_irq+0x10>
  100f33:	ff 15 20 57 11 00    	call   *0x115720
  100f39:	c9                   	leave  
  100f3a:	c3                   	ret    
  100f3b:	90                   	nop

00100f3c <irq_handle>:
  100f3c:	55                   	push   %ebp
  100f3d:	89 e5                	mov    %esp,%ebp
  100f3f:	53                   	push   %ebx
  100f40:	83 ec 64             	sub    $0x64,%esp
  100f43:	8b 5d 08             	mov    0x8(%ebp),%ebx
  100f46:	e8 d5 f7 ff ff       	call   100720 <_cpu>
  100f4b:	8d 14 00             	lea    (%eax,%eax,1),%edx
  100f4e:	01 c2                	add    %eax,%edx
  100f50:	01 d2                	add    %edx,%edx
  100f52:	01 c2                	add    %eax,%edx
  100f54:	8d 14 90             	lea    (%eax,%edx,4),%edx
  100f57:	01 d2                	add    %edx,%edx
  100f59:	01 d0                	add    %edx,%eax
  100f5b:	8d 04 c0             	lea    (%eax,%eax,8),%eax
  100f5e:	8b 04 c5 a0 5e 11 00 	mov    0x115ea0(,%eax,8),%eax
  100f65:	89 45 b4             	mov    %eax,-0x4c(%ebp)
  100f68:	8b 43 1c             	mov    0x1c(%ebx),%eax
  100f6b:	89 45 b8             	mov    %eax,-0x48(%ebp)
  100f6e:	8b 43 10             	mov    0x10(%ebx),%eax
  100f71:	89 45 bc             	mov    %eax,-0x44(%ebp)
  100f74:	8b 43 18             	mov    0x18(%ebx),%eax
  100f77:	89 45 c0             	mov    %eax,-0x40(%ebp)
  100f7a:	8b 43 14             	mov    0x14(%ebx),%eax
  100f7d:	89 45 c4             	mov    %eax,-0x3c(%ebp)
  100f80:	8b 43 04             	mov    0x4(%ebx),%eax
  100f83:	89 45 c8             	mov    %eax,-0x38(%ebp)
  100f86:	8b 03                	mov    (%ebx),%eax
  100f88:	89 45 cc             	mov    %eax,-0x34(%ebp)
  100f8b:	8b 43 08             	mov    0x8(%ebx),%eax
  100f8e:	89 45 d0             	mov    %eax,-0x30(%ebp)
  100f91:	c7 45 d4 00 00 00 00 	movl   $0x0,-0x2c(%ebp)
  100f98:	8b 43 30             	mov    0x30(%ebx),%eax
  100f9b:	89 45 d8             	mov    %eax,-0x28(%ebp)
  100f9e:	8b 43 38             	mov    0x38(%ebx),%eax
  100fa1:	89 45 dc             	mov    %eax,-0x24(%ebp)
  100fa4:	8b 43 34             	mov    0x34(%ebx),%eax
  100fa7:	89 45 e0             	mov    %eax,-0x20(%ebp)
  100faa:	8b 53 24             	mov    0x24(%ebx),%edx
  100fad:	89 55 e4             	mov    %edx,-0x1c(%ebp)
  100fb0:	8b 53 20             	mov    0x20(%ebx),%edx
  100fb3:	89 55 e8             	mov    %edx,-0x18(%ebp)
  100fb6:	c7 45 ec 00 00 00 00 	movl   $0x0,-0x14(%ebp)
  100fbd:	c7 45 f0 10 00 00 00 	movl   $0x10,-0x10(%ebp)
  100fc4:	8d 53 44             	lea    0x44(%ebx),%edx
  100fc7:	89 55 f4             	mov    %edx,-0xc(%ebp)
  100fca:	a8 03                	test   $0x3,%al
  100fcc:	74 6a                	je     101038 <irq_handle+0xfc>
  100fce:	8b 43 40             	mov    0x40(%ebx),%eax
  100fd1:	89 45 ec             	mov    %eax,-0x14(%ebp)
  100fd4:	8b 43 3c             	mov    0x3c(%ebx),%eax
  100fd7:	89 45 d4             	mov    %eax,-0x2c(%ebp)
  100fda:	8b 43 28             	mov    0x28(%ebx),%eax
  100fdd:	8d 50 e0             	lea    -0x20(%eax),%edx
  100fe0:	83 fa 1f             	cmp    $0x1f,%edx
  100fe3:	76 64                	jbe    101049 <irq_handle+0x10d>
  100fe5:	c7 45 ac 00 00 00 00 	movl   $0x0,-0x54(%ebp)
  100fec:	83 f8 0b             	cmp    $0xb,%eax
  100fef:	0f 84 43 02 00 00    	je     101238 <irq_handle+0x2fc>
  100ff5:	7e 5d                	jle    101054 <irq_handle+0x118>
  100ff7:	83 f8 0e             	cmp    $0xe,%eax
  100ffa:	0f 84 6c 01 00 00    	je     10116c <irq_handle+0x230>
  101000:	0f 8e ee 01 00 00    	jle    1011f4 <irq_handle+0x2b8>
  101006:	83 f8 21             	cmp    $0x21,%eax
  101009:	0f 84 91 01 00 00    	je     1011a0 <irq_handle+0x264>
  10100f:	3d 80 00 00 00       	cmp    $0x80,%eax
  101014:	0f 84 fe 01 00 00    	je     101218 <irq_handle+0x2dc>
  10101a:	83 f8 20             	cmp    $0x20,%eax
  10101d:	0f 84 75 02 00 00    	je     101298 <irq_handle+0x35c>
  101023:	c7 45 b0 d4 67 10 00 	movl   $0x1067d4,-0x50(%ebp)
  10102a:	c7 45 a4 01 00 00 00 	movl   $0x1,-0x5c(%ebp)
  101031:	8b 43 2c             	mov    0x2c(%ebx),%eax
  101034:	eb 4a                	jmp    101080 <irq_handle+0x144>
  101036:	66 90                	xchg   %ax,%ax
  101038:	8d 43 3c             	lea    0x3c(%ebx),%eax
  10103b:	89 45 f4             	mov    %eax,-0xc(%ebp)
  10103e:	8b 43 28             	mov    0x28(%ebx),%eax
  101041:	8d 50 e0             	lea    -0x20(%eax),%edx
  101044:	83 fa 1f             	cmp    $0x1f,%edx
  101047:	77 9c                	ja     100fe5 <irq_handle+0xa9>
  101049:	e8 76 f1 ff ff       	call   1001c4 <lapic_eoi>
  10104e:	8b 43 28             	mov    0x28(%ebx),%eax
  101051:	eb 92                	jmp    100fe5 <irq_handle+0xa9>
  101053:	90                   	nop
  101054:	83 f8 07             	cmp    $0x7,%eax
  101057:	0f 84 53 02 00 00    	je     1012b0 <irq_handle+0x374>
  10105d:	0f 8f e1 00 00 00    	jg     101144 <irq_handle+0x208>
  101063:	85 c0                	test   %eax,%eax
  101065:	0f 84 15 02 00 00    	je     101280 <irq_handle+0x344>
  10106b:	83 f8 06             	cmp    $0x6,%eax
  10106e:	75 b3                	jne    101023 <irq_handle+0xe7>
  101070:	c7 45 b0 da 66 10 00 	movl   $0x1066da,-0x50(%ebp)
  101077:	c7 45 a4 01 00 00 00 	movl   $0x1,-0x5c(%ebp)
  10107e:	31 c0                	xor    %eax,%eax
  101080:	8b 15 20 57 11 00    	mov    0x115720,%edx
  101086:	85 d2                	test   %edx,%edx
  101088:	0f 84 5e 01 00 00    	je     1011ec <irq_handle+0x2b0>
  10108e:	89 45 a8             	mov    %eax,-0x58(%ebp)
  101091:	83 ec 0c             	sub    $0xc,%esp
  101094:	8d 45 b4             	lea    -0x4c(%ebp),%eax
  101097:	50                   	push   %eax
  101098:	83 ec 10             	sub    $0x10,%esp
  10109b:	89 e2                	mov    %esp,%edx
  10109d:	31 c0                	xor    %eax,%eax
  10109f:	8b 4c 05 a4          	mov    -0x5c(%ebp,%eax,1),%ecx
  1010a3:	89 0c 02             	mov    %ecx,(%edx,%eax,1)
  1010a6:	83 c0 04             	add    $0x4,%eax
  1010a9:	83 f8 10             	cmp    $0x10,%eax
  1010ac:	72 f1                	jb     10109f <irq_handle+0x163>
  1010ae:	e8 41 11 00 00       	call   1021f4 <__cb_irq>
  1010b3:	89 c3                	mov    %eax,%ebx
  1010b5:	83 c4 20             	add    $0x20,%esp
  1010b8:	85 c0                	test   %eax,%eax
  1010ba:	0f 84 1e 02 00 00    	je     1012de <irq_handle+0x3a2>
  1010c0:	e8 5b f6 ff ff       	call   100720 <_cpu>
  1010c5:	8b 0b                	mov    (%ebx),%ecx
  1010c7:	8d 14 00             	lea    (%eax,%eax,1),%edx
  1010ca:	01 c2                	add    %eax,%edx
  1010cc:	01 d2                	add    %edx,%edx
  1010ce:	01 c2                	add    %eax,%edx
  1010d0:	8d 14 90             	lea    (%eax,%edx,4),%edx
  1010d3:	01 d2                	add    %edx,%edx
  1010d5:	01 d0                	add    %edx,%eax
  1010d7:	8d 04 c0             	lea    (%eax,%eax,8),%eax
  1010da:	89 0c c5 a0 5e 11 00 	mov    %ecx,0x115ea0(,%eax,8)
  1010e1:	f6 43 2c 03          	testb  $0x3,0x2c(%ebx)
  1010e5:	0f 84 cd 00 00 00    	je     1011b8 <irq_handle+0x27c>
  1010eb:	85 c9                	test   %ecx,%ecx
  1010ed:	74 06                	je     1010f5 <irq_handle+0x1b9>
  1010ef:	8b 41 0c             	mov    0xc(%ecx),%eax
  1010f2:	0f 22 d8             	mov    %eax,%cr3
  1010f5:	83 ec 08             	sub    $0x8,%esp
  1010f8:	ff 73 40             	pushl  0x40(%ebx)
  1010fb:	ff 73 3c             	pushl  0x3c(%ebx)
  1010fe:	e8 f1 f3 ff ff       	call   1004f4 <thiscpu_setstk0>
  101103:	83 c4 10             	add    $0x10,%esp
  101106:	8b 63 40             	mov    0x40(%ebx),%esp
  101109:	ff 73 38             	pushl  0x38(%ebx)
  10110c:	ff 73 20             	pushl  0x20(%ebx)
  10110f:	ff 73 28             	pushl  0x28(%ebx)
  101112:	ff 73 2c             	pushl  0x2c(%ebx)
  101115:	ff 73 24             	pushl  0x24(%ebx)
  101118:	ff 73 30             	pushl  0x30(%ebx)
  10111b:	ff 73 34             	pushl  0x34(%ebx)
  10111e:	ff 73 04             	pushl  0x4(%ebx)
  101121:	ff 73 0c             	pushl  0xc(%ebx)
  101124:	ff 73 10             	pushl  0x10(%ebx)
  101127:	ff 73 08             	pushl  0x8(%ebx)
  10112a:	ff 73 40             	pushl  0x40(%ebx)
  10112d:	ff 73 1c             	pushl  0x1c(%ebx)
  101130:	ff 73 14             	pushl  0x14(%ebx)
  101133:	ff 73 18             	pushl  0x18(%ebx)
  101136:	eb 00                	jmp    101138 <irq_handle+0x1fc>
  101138:	61                   	popa   
  101139:	07                   	pop    %es
  10113a:	1f                   	pop    %ds
  10113b:	cf                   	iret   
  10113c:	8b 5d fc             	mov    -0x4(%ebp),%ebx
  10113f:	c9                   	leave  
  101140:	c3                   	ret    
  101141:	8d 76 00             	lea    0x0(%esi),%esi
  101144:	83 f8 08             	cmp    $0x8,%eax
  101147:	0f 84 1b 01 00 00    	je     101268 <irq_handle+0x32c>
  10114d:	83 f8 0a             	cmp    $0xa,%eax
  101150:	0f 85 cd fe ff ff    	jne    101023 <irq_handle+0xe7>
  101156:	c7 45 b0 1a 67 10 00 	movl   $0x10671a,-0x50(%ebp)
  10115d:	c7 45 a4 01 00 00 00 	movl   $0x1,-0x5c(%ebp)
  101164:	31 c0                	xor    %eax,%eax
  101166:	e9 15 ff ff ff       	jmp    101080 <irq_handle+0x144>
  10116b:	90                   	nop
  10116c:	c7 45 b0 ac 67 10 00 	movl   $0x1067ac,-0x50(%ebp)
  101173:	c7 45 a4 04 00 00 00 	movl   $0x4,-0x5c(%ebp)
  10117a:	8b 53 2c             	mov    0x2c(%ebx),%edx
  10117d:	89 d0                	mov    %edx,%eax
  10117f:	83 e0 01             	and    $0x1,%eax
  101182:	83 e2 02             	and    $0x2,%edx
  101185:	0f 85 3d 01 00 00    	jne    1012c8 <irq_handle+0x38c>
  10118b:	83 c8 02             	or     $0x2,%eax
  10118e:	0f 20 d2             	mov    %cr2,%edx
  101191:	89 55 a0             	mov    %edx,-0x60(%ebp)
  101194:	8b 55 a0             	mov    -0x60(%ebp),%edx
  101197:	89 55 ac             	mov    %edx,-0x54(%ebp)
  10119a:	e9 e1 fe ff ff       	jmp    101080 <irq_handle+0x144>
  10119f:	90                   	nop
  1011a0:	c7 45 b0 b0 66 10 00 	movl   $0x1066b0,-0x50(%ebp)
  1011a7:	c7 45 a4 03 00 00 00 	movl   $0x3,-0x5c(%ebp)
  1011ae:	31 c0                	xor    %eax,%eax
  1011b0:	e9 cb fe ff ff       	jmp    101080 <irq_handle+0x144>
  1011b5:	8d 76 00             	lea    0x0(%esi),%esi
  1011b8:	8b 63 40             	mov    0x40(%ebx),%esp
  1011bb:	ff 73 28             	pushl  0x28(%ebx)
  1011be:	ff 73 2c             	pushl  0x2c(%ebx)
  1011c1:	ff 73 24             	pushl  0x24(%ebx)
  1011c4:	ff 73 30             	pushl  0x30(%ebx)
  1011c7:	ff 73 34             	pushl  0x34(%ebx)
  1011ca:	ff 73 04             	pushl  0x4(%ebx)
  1011cd:	ff 73 0c             	pushl  0xc(%ebx)
  1011d0:	ff 73 10             	pushl  0x10(%ebx)
  1011d3:	ff 73 08             	pushl  0x8(%ebx)
  1011d6:	ff 73 40             	pushl  0x40(%ebx)
  1011d9:	ff 73 1c             	pushl  0x1c(%ebx)
  1011dc:	ff 73 14             	pushl  0x14(%ebx)
  1011df:	ff 73 18             	pushl  0x18(%ebx)
  1011e2:	e9 51 ff ff ff       	jmp    101138 <irq_handle+0x1fc>
  1011e7:	e9 4c ff ff ff       	jmp    101138 <irq_handle+0x1fc>
  1011ec:	8d 5d b4             	lea    -0x4c(%ebp),%ebx
  1011ef:	e9 cc fe ff ff       	jmp    1010c0 <irq_handle+0x184>
  1011f4:	83 f8 0c             	cmp    $0xc,%eax
  1011f7:	74 57                	je     101250 <irq_handle+0x314>
  1011f9:	83 f8 0d             	cmp    $0xd,%eax
  1011fc:	0f 85 21 fe ff ff    	jne    101023 <irq_handle+0xe7>
  101202:	c7 45 b0 88 67 10 00 	movl   $0x106788,-0x50(%ebp)
  101209:	c7 45 a4 01 00 00 00 	movl   $0x1,-0x5c(%ebp)
  101210:	31 c0                	xor    %eax,%eax
  101212:	e9 69 fe ff ff       	jmp    101080 <irq_handle+0x144>
  101217:	90                   	nop
  101218:	c7 45 b0 40 67 10 00 	movl   $0x106740,-0x50(%ebp)
  10121f:	83 7b 1c ff          	cmpl   $0xffffffff,0x1c(%ebx)
  101223:	0f 84 a7 00 00 00    	je     1012d0 <irq_handle+0x394>
  101229:	c7 45 a4 06 00 00 00 	movl   $0x6,-0x5c(%ebp)
  101230:	31 c0                	xor    %eax,%eax
  101232:	e9 49 fe ff ff       	jmp    101080 <irq_handle+0x144>
  101237:	90                   	nop
  101238:	c7 45 b0 68 67 10 00 	movl   $0x106768,-0x50(%ebp)
  10123f:	c7 45 a4 01 00 00 00 	movl   $0x1,-0x5c(%ebp)
  101246:	31 c0                	xor    %eax,%eax
  101248:	e9 33 fe ff ff       	jmp    101080 <irq_handle+0x144>
  10124d:	8d 76 00             	lea    0x0(%esi),%esi
  101250:	c7 45 b0 2d 67 10 00 	movl   $0x10672d,-0x50(%ebp)
  101257:	c7 45 a4 01 00 00 00 	movl   $0x1,-0x5c(%ebp)
  10125e:	31 c0                	xor    %eax,%eax
  101260:	e9 1b fe ff ff       	jmp    101080 <irq_handle+0x144>
  101265:	8d 76 00             	lea    0x0(%esi),%esi
  101268:	c7 45 b0 07 67 10 00 	movl   $0x106707,-0x50(%ebp)
  10126f:	c7 45 a4 01 00 00 00 	movl   $0x1,-0x5c(%ebp)
  101276:	31 c0                	xor    %eax,%eax
  101278:	e9 03 fe ff ff       	jmp    101080 <irq_handle+0x144>
  10127d:	8d 76 00             	lea    0x0(%esi),%esi
  101280:	c7 45 b0 cb 66 10 00 	movl   $0x1066cb,-0x50(%ebp)
  101287:	c7 45 a4 01 00 00 00 	movl   $0x1,-0x5c(%ebp)
  10128e:	31 c0                	xor    %eax,%eax
  101290:	e9 eb fd ff ff       	jmp    101080 <irq_handle+0x144>
  101295:	8d 76 00             	lea    0x0(%esi),%esi
  101298:	c7 45 b0 98 66 10 00 	movl   $0x106698,-0x50(%ebp)
  10129f:	c7 45 a4 02 00 00 00 	movl   $0x2,-0x5c(%ebp)
  1012a6:	31 c0                	xor    %eax,%eax
  1012a8:	e9 d3 fd ff ff       	jmp    101080 <irq_handle+0x144>
  1012ad:	8d 76 00             	lea    0x0(%esi),%esi
  1012b0:	c7 45 b0 ef 66 10 00 	movl   $0x1066ef,-0x50(%ebp)
  1012b7:	c7 45 a4 01 00 00 00 	movl   $0x1,-0x5c(%ebp)
  1012be:	31 c0                	xor    %eax,%eax
  1012c0:	e9 bb fd ff ff       	jmp    101080 <irq_handle+0x144>
  1012c5:	8d 76 00             	lea    0x0(%esi),%esi
  1012c8:	83 c8 04             	or     $0x4,%eax
  1012cb:	e9 be fe ff ff       	jmp    10118e <irq_handle+0x252>
  1012d0:	c7 45 a4 05 00 00 00 	movl   $0x5,-0x5c(%ebp)
  1012d7:	31 c0                	xor    %eax,%eax
  1012d9:	e9 a2 fd ff ff       	jmp    101080 <irq_handle+0x144>
  1012de:	bb ad 64 10 00       	mov    $0x1064ad,%ebx
  1012e3:	b8 41 00 00 00       	mov    $0x41,%eax
  1012e8:	83 ec 0c             	sub    $0xc,%esp
  1012eb:	50                   	push   %eax
  1012ec:	e8 0f ed ff ff       	call   100000 <_putc>
  1012f1:	43                   	inc    %ebx
  1012f2:	0f be 03             	movsbl (%ebx),%eax
  1012f5:	83 c4 10             	add    $0x10,%esp
  1012f8:	84 c0                	test   %al,%al
  1012fa:	75 ec                	jne    1012e8 <irq_handle+0x3ac>
  1012fc:	bb 55 66 10 00       	mov    $0x106655,%ebx
  101301:	b8 72 00 00 00       	mov    $0x72,%eax
  101306:	83 ec 0c             	sub    $0xc,%esp
  101309:	50                   	push   %eax
  10130a:	e8 f1 ec ff ff       	call   100000 <_putc>
  10130f:	43                   	inc    %ebx
  101310:	0f be 03             	movsbl (%ebx),%eax
  101313:	83 c4 10             	add    $0x10,%esp
  101316:	84 c0                	test   %al,%al
  101318:	75 ec                	jne    101306 <irq_handle+0x3ca>
  10131a:	bb 6e 66 10 00       	mov    $0x10666e,%ebx
  10131f:	b8 20 00 00 00       	mov    $0x20,%eax
  101324:	83 ec 0c             	sub    $0xc,%esp
  101327:	50                   	push   %eax
  101328:	e8 d3 ec ff ff       	call   100000 <_putc>
  10132d:	43                   	inc    %ebx
  10132e:	0f be 03             	movsbl (%ebx),%eax
  101331:	83 c4 10             	add    $0x10,%esp
  101334:	84 c0                	test   %al,%al
  101336:	75 ec                	jne    101324 <irq_handle+0x3e8>
  101338:	83 ec 0c             	sub    $0xc,%esp
  10133b:	6a 01                	push   $0x1
  10133d:	e8 ce ec ff ff       	call   100010 <_halt>
  101342:	66 90                	xchg   %ax,%ax

00101344 <percpu_initirq>:
  101344:	55                   	push   %ebp
  101345:	89 e5                	mov    %esp,%ebp
  101347:	a1 20 57 11 00       	mov    0x115720,%eax
  10134c:	85 c0                	test   %eax,%eax
  10134e:	74 08                	je     101358 <percpu_initirq+0x14>
  101350:	5d                   	pop    %ebp
  101351:	e9 5a f4 ff ff       	jmp    1007b0 <percpu_initirq.part.0>
  101356:	66 90                	xchg   %ax,%ax
  101358:	5d                   	pop    %ebp
  101359:	c3                   	ret    

0010135a <trap>:
  10135a:	1e                   	push   %ds
  10135b:	06                   	push   %es
  10135c:	60                   	pusha  
  10135d:	66 b8 10 00          	mov    $0x10,%ax
  101361:	8e d8                	mov    %eax,%ds
  101363:	8e c0                	mov    %eax,%es
  101365:	54                   	push   %esp
  101366:	e8 d1 fb ff ff       	call   100f3c <irq_handle>

0010136b <irq0>:
  10136b:	fa                   	cli    
  10136c:	6a 00                	push   $0x0
  10136e:	6a 00                	push   $0x0
  101370:	eb e8                	jmp    10135a <trap>

00101372 <irq1>:
  101372:	fa                   	cli    
  101373:	6a 00                	push   $0x0
  101375:	6a 01                	push   $0x1
  101377:	eb e1                	jmp    10135a <trap>

00101379 <irq2>:
  101379:	fa                   	cli    
  10137a:	6a 00                	push   $0x0
  10137c:	6a 02                	push   $0x2
  10137e:	eb da                	jmp    10135a <trap>

00101380 <irq3>:
  101380:	fa                   	cli    
  101381:	6a 00                	push   $0x0
  101383:	6a 03                	push   $0x3
  101385:	eb d3                	jmp    10135a <trap>

00101387 <irq4>:
  101387:	fa                   	cli    
  101388:	6a 00                	push   $0x0
  10138a:	6a 04                	push   $0x4
  10138c:	eb cc                	jmp    10135a <trap>

0010138e <irq5>:
  10138e:	fa                   	cli    
  10138f:	6a 00                	push   $0x0
  101391:	6a 05                	push   $0x5
  101393:	eb c5                	jmp    10135a <trap>

00101395 <irq6>:
  101395:	fa                   	cli    
  101396:	6a 00                	push   $0x0
  101398:	6a 06                	push   $0x6
  10139a:	eb be                	jmp    10135a <trap>

0010139c <irq7>:
  10139c:	fa                   	cli    
  10139d:	6a 00                	push   $0x0
  10139f:	6a 07                	push   $0x7
  1013a1:	eb b7                	jmp    10135a <trap>

001013a3 <irq8>:
  1013a3:	fa                   	cli    
  1013a4:	6a 08                	push   $0x8
  1013a6:	eb b2                	jmp    10135a <trap>

001013a8 <irq9>:
  1013a8:	fa                   	cli    
  1013a9:	6a 00                	push   $0x0
  1013ab:	6a 09                	push   $0x9
  1013ad:	eb ab                	jmp    10135a <trap>

001013af <irq10>:
  1013af:	fa                   	cli    
  1013b0:	6a 0a                	push   $0xa
  1013b2:	eb a6                	jmp    10135a <trap>

001013b4 <irq11>:
  1013b4:	fa                   	cli    
  1013b5:	6a 0b                	push   $0xb
  1013b7:	eb a1                	jmp    10135a <trap>

001013b9 <irq12>:
  1013b9:	fa                   	cli    
  1013ba:	6a 0c                	push   $0xc
  1013bc:	eb 9c                	jmp    10135a <trap>

001013be <irq13>:
  1013be:	fa                   	cli    
  1013bf:	6a 0d                	push   $0xd
  1013c1:	eb 97                	jmp    10135a <trap>

001013c3 <irq14>:
  1013c3:	fa                   	cli    
  1013c4:	6a 0e                	push   $0xe
  1013c6:	eb 92                	jmp    10135a <trap>

001013c8 <irq15>:
  1013c8:	fa                   	cli    
  1013c9:	6a 00                	push   $0x0
  1013cb:	6a 0f                	push   $0xf
  1013cd:	eb 8b                	jmp    10135a <trap>

001013cf <irq16>:
  1013cf:	fa                   	cli    
  1013d0:	6a 00                	push   $0x0
  1013d2:	6a 10                	push   $0x10
  1013d4:	eb 84                	jmp    10135a <trap>

001013d6 <irq19>:
  1013d6:	fa                   	cli    
  1013d7:	6a 00                	push   $0x0
  1013d9:	6a 13                	push   $0x13
  1013db:	e9 7a ff ff ff       	jmp    10135a <trap>

001013e0 <irq31>:
  1013e0:	fa                   	cli    
  1013e1:	6a 00                	push   $0x0
  1013e3:	6a 1f                	push   $0x1f
  1013e5:	e9 70 ff ff ff       	jmp    10135a <trap>

001013ea <irq32>:
  1013ea:	fa                   	cli    
  1013eb:	6a 00                	push   $0x0
  1013ed:	6a 20                	push   $0x20
  1013ef:	e9 66 ff ff ff       	jmp    10135a <trap>

001013f4 <irq33>:
  1013f4:	fa                   	cli    
  1013f5:	6a 00                	push   $0x0
  1013f7:	6a 21                	push   $0x21
  1013f9:	e9 5c ff ff ff       	jmp    10135a <trap>

001013fe <irq34>:
  1013fe:	fa                   	cli    
  1013ff:	6a 00                	push   $0x0
  101401:	6a 22                	push   $0x22
  101403:	e9 52 ff ff ff       	jmp    10135a <trap>

00101408 <irq35>:
  101408:	fa                   	cli    
  101409:	6a 00                	push   $0x0
  10140b:	6a 23                	push   $0x23
  10140d:	e9 48 ff ff ff       	jmp    10135a <trap>

00101412 <irq36>:
  101412:	fa                   	cli    
  101413:	6a 00                	push   $0x0
  101415:	6a 24                	push   $0x24
  101417:	e9 3e ff ff ff       	jmp    10135a <trap>

0010141c <irq37>:
  10141c:	fa                   	cli    
  10141d:	6a 00                	push   $0x0
  10141f:	6a 25                	push   $0x25
  101421:	e9 34 ff ff ff       	jmp    10135a <trap>

00101426 <irq38>:
  101426:	fa                   	cli    
  101427:	6a 00                	push   $0x0
  101429:	6a 26                	push   $0x26
  10142b:	e9 2a ff ff ff       	jmp    10135a <trap>

00101430 <irq39>:
  101430:	fa                   	cli    
  101431:	6a 00                	push   $0x0
  101433:	6a 27                	push   $0x27
  101435:	e9 20 ff ff ff       	jmp    10135a <trap>

0010143a <irq40>:
  10143a:	fa                   	cli    
  10143b:	6a 00                	push   $0x0
  10143d:	6a 28                	push   $0x28
  10143f:	e9 16 ff ff ff       	jmp    10135a <trap>

00101444 <irq41>:
  101444:	fa                   	cli    
  101445:	6a 00                	push   $0x0
  101447:	6a 29                	push   $0x29
  101449:	e9 0c ff ff ff       	jmp    10135a <trap>

0010144e <irq42>:
  10144e:	fa                   	cli    
  10144f:	6a 00                	push   $0x0
  101451:	6a 2a                	push   $0x2a
  101453:	e9 02 ff ff ff       	jmp    10135a <trap>

00101458 <irq43>:
  101458:	fa                   	cli    
  101459:	6a 00                	push   $0x0
  10145b:	6a 2b                	push   $0x2b
  10145d:	e9 f8 fe ff ff       	jmp    10135a <trap>

00101462 <irq44>:
  101462:	fa                   	cli    
  101463:	6a 00                	push   $0x0
  101465:	6a 2c                	push   $0x2c
  101467:	e9 ee fe ff ff       	jmp    10135a <trap>

0010146c <irq45>:
  10146c:	fa                   	cli    
  10146d:	6a 00                	push   $0x0
  10146f:	6a 2d                	push   $0x2d
  101471:	e9 e4 fe ff ff       	jmp    10135a <trap>

00101476 <irq46>:
  101476:	fa                   	cli    
  101477:	6a 00                	push   $0x0
  101479:	6a 2e                	push   $0x2e
  10147b:	e9 da fe ff ff       	jmp    10135a <trap>

00101480 <irq47>:
  101480:	fa                   	cli    
  101481:	6a 00                	push   $0x0
  101483:	6a 2f                	push   $0x2f
  101485:	e9 d0 fe ff ff       	jmp    10135a <trap>

0010148a <irq128>:
  10148a:	fa                   	cli    
  10148b:	6a 00                	push   $0x0
  10148d:	68 80 00 00 00       	push   $0x80
  101492:	e9 c3 fe ff ff       	jmp    10135a <trap>

00101497 <irqall>:
  101497:	fa                   	cli    
  101498:	6a 00                	push   $0x0
  10149a:	6a ff                	push   $0xffffffff
  10149c:	e9 b9 fe ff ff       	jmp    10135a <trap>
  1014a1:	66 90                	xchg   %ax,%ax
  1014a3:	90                   	nop

001014a4 <pgalloc>:
  1014a4:	55                   	push   %ebp
  1014a5:	89 e5                	mov    %esp,%ebp
  1014a7:	53                   	push   %ebx
  1014a8:	83 ec 10             	sub    $0x10,%esp
  1014ab:	68 00 10 00 00       	push   $0x1000
  1014b0:	e8 27 17 00 00       	call   102bdc <__cb_alloc>
  1014b5:	83 c4 10             	add    $0x10,%esp
  1014b8:	85 c0                	test   %eax,%eax
  1014ba:	74 1a                	je     1014d6 <pgalloc+0x32>
  1014bc:	89 c2                	mov    %eax,%edx
  1014be:	8d 88 00 10 00 00    	lea    0x1000(%eax),%ecx
  1014c4:	c7 02 00 00 00 00    	movl   $0x0,(%edx)
  1014ca:	83 c2 04             	add    $0x4,%edx
  1014cd:	39 d1                	cmp    %edx,%ecx
  1014cf:	75 f3                	jne    1014c4 <pgalloc+0x20>
  1014d1:	8b 5d fc             	mov    -0x4(%ebp),%ebx
  1014d4:	c9                   	leave  
  1014d5:	c3                   	ret    
  1014d6:	bb ad 64 10 00       	mov    $0x1064ad,%ebx
  1014db:	b8 41 00 00 00       	mov    $0x41,%eax
  1014e0:	83 ec 0c             	sub    $0xc,%esp
  1014e3:	50                   	push   %eax
  1014e4:	e8 17 eb ff ff       	call   100000 <_putc>
  1014e9:	43                   	inc    %ebx
  1014ea:	0f be 03             	movsbl (%ebx),%eax
  1014ed:	83 c4 10             	add    $0x10,%esp
  1014f0:	84 c0                	test   %al,%al
  1014f2:	75 ec                	jne    1014e0 <pgalloc+0x3c>
  1014f4:	bb f5 67 10 00       	mov    $0x1067f5,%ebx
  1014f9:	b8 70 00 00 00       	mov    $0x70,%eax
  1014fe:	83 ec 0c             	sub    $0xc,%esp
  101501:	50                   	push   %eax
  101502:	e8 f9 ea ff ff       	call   100000 <_putc>
  101507:	43                   	inc    %ebx
  101508:	0f be 03             	movsbl (%ebx),%eax
  10150b:	83 c4 10             	add    $0x10,%esp
  10150e:	84 c0                	test   %al,%al
  101510:	75 ec                	jne    1014fe <pgalloc+0x5a>
  101512:	bb 0a 68 10 00       	mov    $0x10680a,%ebx
  101517:	b8 20 00 00 00       	mov    $0x20,%eax
  10151c:	83 ec 0c             	sub    $0xc,%esp
  10151f:	50                   	push   %eax
  101520:	e8 db ea ff ff       	call   100000 <_putc>
  101525:	43                   	inc    %ebx
  101526:	0f be 03             	movsbl (%ebx),%eax
  101529:	83 c4 10             	add    $0x10,%esp
  10152c:	84 c0                	test   %al,%al
  10152e:	75 ec                	jne    10151c <pgalloc+0x78>
  101530:	83 ec 0c             	sub    $0xc,%esp
  101533:	6a 01                	push   $0x1
  101535:	e8 d6 ea ff ff       	call   100010 <_halt>
  10153a:	66 90                	xchg   %ax,%ax

0010153c <vme_init>:
  10153c:	55                   	push   %ebp
  10153d:	89 e5                	mov    %esp,%ebp
  10153f:	57                   	push   %edi
  101540:	56                   	push   %esi
  101541:	53                   	push   %ebx
  101542:	83 ec 2c             	sub    $0x2c,%esp
  101545:	e8 d6 f1 ff ff       	call   100720 <_cpu>
  10154a:	85 c0                	test   %eax,%eax
  10154c:	0f 85 b8 00 00 00    	jne    10160a <vme_init+0xce>
  101552:	8b 45 08             	mov    0x8(%ebp),%eax
  101555:	a3 28 57 11 00       	mov    %eax,0x115728
  10155a:	8b 45 0c             	mov    0xc(%ebp),%eax
  10155d:	a3 24 57 11 00       	mov    %eax,0x115724
  101562:	e8 3d ff ff ff       	call   1014a4 <pgalloc>
  101567:	89 c1                	mov    %eax,%ecx
  101569:	a3 2c 57 11 00       	mov    %eax,0x11572c
  10156e:	bf e0 68 10 00       	mov    $0x1068e0,%edi
  101573:	b8 01 00 00 00       	mov    $0x1,%eax
  101578:	85 c0                	test   %eax,%eax
  10157a:	74 5b                	je     1015d7 <vme_init+0x9b>
  10157c:	8b 1f                	mov    (%edi),%ebx
  10157e:	8b 47 04             	mov    0x4(%edi),%eax
  101581:	39 c3                	cmp    %eax,%ebx
  101583:	74 52                	je     1015d7 <vme_init+0x9b>
  101585:	89 7d d4             	mov    %edi,-0x2c(%ebp)
  101588:	89 c7                	mov    %eax,%edi
  10158a:	eb 22                	jmp    1015ae <vme_init+0x72>
  10158c:	25 00 f0 ff ff       	and    $0xfffff000,%eax
  101591:	89 da                	mov    %ebx,%edx
  101593:	c1 ea 0c             	shr    $0xc,%edx
  101596:	81 e2 ff 03 00 00    	and    $0x3ff,%edx
  10159c:	89 de                	mov    %ebx,%esi
  10159e:	83 ce 03             	or     $0x3,%esi
  1015a1:	89 34 90             	mov    %esi,(%eax,%edx,4)
  1015a4:	81 c3 00 10 00 00    	add    $0x1000,%ebx
  1015aa:	39 fb                	cmp    %edi,%ebx
  1015ac:	74 26                	je     1015d4 <vme_init+0x98>
  1015ae:	89 de                	mov    %ebx,%esi
  1015b0:	c1 ee 16             	shr    $0x16,%esi
  1015b3:	c1 e6 02             	shl    $0x2,%esi
  1015b6:	8b 04 31             	mov    (%ecx,%esi,1),%eax
  1015b9:	a8 01                	test   $0x1,%al
  1015bb:	75 cf                	jne    10158c <vme_init+0x50>
  1015bd:	e8 e2 fe ff ff       	call   1014a4 <pgalloc>
  1015c2:	8b 0d 2c 57 11 00    	mov    0x11572c,%ecx
  1015c8:	89 c2                	mov    %eax,%edx
  1015ca:	83 ca 03             	or     $0x3,%edx
  1015cd:	89 14 31             	mov    %edx,(%ecx,%esi,1)
  1015d0:	eb bf                	jmp    101591 <vme_init+0x55>
  1015d2:	66 90                	xchg   %ax,%ax
  1015d4:	8b 7d d4             	mov    -0x2c(%ebp),%edi
  1015d7:	83 c7 0c             	add    $0xc,%edi
  1015da:	b8 04 69 10 00       	mov    $0x106904,%eax
  1015df:	39 f8                	cmp    %edi,%eax
  1015e1:	74 05                	je     1015e8 <vme_init+0xac>
  1015e3:	8b 47 08             	mov    0x8(%edi),%eax
  1015e6:	eb 90                	jmp    101578 <vme_init+0x3c>
  1015e8:	85 c9                	test   %ecx,%ecx
  1015ea:	74 14                	je     101600 <vme_init+0xc4>
  1015ec:	0f 22 d9             	mov    %ecx,%cr3
  1015ef:	0f 20 c0             	mov    %cr0,%eax
  1015f2:	89 45 e4             	mov    %eax,-0x1c(%ebp)
  1015f5:	8b 45 e4             	mov    -0x1c(%ebp),%eax
  1015f8:	0d 00 00 00 80       	or     $0x80000000,%eax
  1015fd:	0f 22 c0             	mov    %eax,%cr0
  101600:	31 c0                	xor    %eax,%eax
  101602:	8d 65 f4             	lea    -0xc(%ebp),%esp
  101605:	5b                   	pop    %ebx
  101606:	5e                   	pop    %esi
  101607:	5f                   	pop    %edi
  101608:	5d                   	pop    %ebp
  101609:	c3                   	ret    
  10160a:	bb ad 64 10 00       	mov    $0x1064ad,%ebx
  10160f:	b8 41 00 00 00       	mov    $0x41,%eax
  101614:	83 ec 0c             	sub    $0xc,%esp
  101617:	50                   	push   %eax
  101618:	e8 e3 e9 ff ff       	call   100000 <_putc>
  10161d:	43                   	inc    %ebx
  10161e:	0f be 03             	movsbl (%ebx),%eax
  101621:	83 c4 10             	add    $0x10,%esp
  101624:	84 c0                	test   %al,%al
  101626:	75 ec                	jne    101614 <vme_init+0xd8>
  101628:	bb 27 68 10 00       	mov    $0x106827,%ebx
  10162d:	b8 69 00 00 00       	mov    $0x69,%eax
  101632:	83 ec 0c             	sub    $0xc,%esp
  101635:	50                   	push   %eax
  101636:	e8 c5 e9 ff ff       	call   100000 <_putc>
  10163b:	43                   	inc    %ebx
  10163c:	0f be 03             	movsbl (%ebx),%eax
  10163f:	83 c4 10             	add    $0x10,%esp
  101642:	84 c0                	test   %al,%al
  101644:	75 ec                	jne    101632 <vme_init+0xf6>
  101646:	bb 45 68 10 00       	mov    $0x106845,%ebx
  10164b:	b8 20 00 00 00       	mov    $0x20,%eax
  101650:	83 ec 0c             	sub    $0xc,%esp
  101653:	50                   	push   %eax
  101654:	e8 a7 e9 ff ff       	call   100000 <_putc>
  101659:	43                   	inc    %ebx
  10165a:	0f be 03             	movsbl (%ebx),%eax
  10165d:	83 c4 10             	add    $0x10,%esp
  101660:	84 c0                	test   %al,%al
  101662:	75 ec                	jne    101650 <vme_init+0x114>
  101664:	83 ec 0c             	sub    $0xc,%esp
  101667:	6a 01                	push   $0x1
  101669:	e8 a2 e9 ff ff       	call   100010 <_halt>
  10166e:	66 90                	xchg   %ax,%ax

00101670 <percpu_initpg>:
  101670:	a1 2c 57 11 00       	mov    0x11572c,%eax
  101675:	85 c0                	test   %eax,%eax
  101677:	74 1f                	je     101698 <percpu_initpg+0x28>
  101679:	55                   	push   %ebp
  10167a:	89 e5                	mov    %esp,%ebp
  10167c:	83 ec 10             	sub    $0x10,%esp
  10167f:	0f 22 d8             	mov    %eax,%cr3
  101682:	0f 20 c0             	mov    %cr0,%eax
  101685:	89 45 fc             	mov    %eax,-0x4(%ebp)
  101688:	8b 45 fc             	mov    -0x4(%ebp),%eax
  10168b:	0d 00 00 00 80       	or     $0x80000000,%eax
  101690:	0f 22 c0             	mov    %eax,%cr0
  101693:	c9                   	leave  
  101694:	c3                   	ret    
  101695:	8d 76 00             	lea    0x0(%esi),%esi
  101698:	c3                   	ret    
  101699:	66 90                	xchg   %ax,%ax
  10169b:	90                   	nop

0010169c <protect>:
  10169c:	55                   	push   %ebp
  10169d:	89 e5                	mov    %esp,%ebp
  10169f:	56                   	push   %esi
  1016a0:	53                   	push   %ebx
  1016a1:	8b 5d 08             	mov    0x8(%ebp),%ebx
  1016a4:	e8 fb fd ff ff       	call   1014a4 <pgalloc>
  1016a9:	8b 35 2c 57 11 00    	mov    0x11572c,%esi
  1016af:	31 d2                	xor    %edx,%edx
  1016b1:	8d 76 00             	lea    0x0(%esi),%esi
  1016b4:	8b 0c 96             	mov    (%esi,%edx,4),%ecx
  1016b7:	89 0c 90             	mov    %ecx,(%eax,%edx,4)
  1016ba:	42                   	inc    %edx
  1016bb:	81 fa 00 04 00 00    	cmp    $0x400,%edx
  1016c1:	75 f1                	jne    1016b4 <protect+0x18>
  1016c3:	c7 03 00 10 00 00    	movl   $0x1000,(%ebx)
  1016c9:	8b 15 ec 68 10 00    	mov    0x1068ec,%edx
  1016cf:	8b 0d f0 68 10 00    	mov    0x1068f0,%ecx
  1016d5:	89 53 04             	mov    %edx,0x4(%ebx)
  1016d8:	89 4b 08             	mov    %ecx,0x8(%ebx)
  1016db:	89 43 0c             	mov    %eax,0xc(%ebx)
  1016de:	31 c0                	xor    %eax,%eax
  1016e0:	5b                   	pop    %ebx
  1016e1:	5e                   	pop    %esi
  1016e2:	5d                   	pop    %ebp
  1016e3:	c3                   	ret    

001016e4 <unprotect>:
  1016e4:	55                   	push   %ebp
  1016e5:	89 e5                	mov    %esp,%ebp
  1016e7:	56                   	push   %esi
  1016e8:	53                   	push   %ebx
  1016e9:	8b 45 08             	mov    0x8(%ebp),%eax
  1016ec:	8b 70 0c             	mov    0xc(%eax),%esi
  1016ef:	bb 00 00 00 40       	mov    $0x40000000,%ebx
  1016f4:	eb 10                	jmp    101706 <unprotect+0x22>
  1016f6:	66 90                	xchg   %ax,%ax
  1016f8:	81 c3 00 00 40 00    	add    $0x400000,%ebx
  1016fe:	81 fb 00 00 00 80    	cmp    $0x80000000,%ebx
  101704:	74 2b                	je     101731 <unprotect+0x4d>
  101706:	89 d8                	mov    %ebx,%eax
  101708:	c1 e8 16             	shr    $0x16,%eax
  10170b:	8b 04 86             	mov    (%esi,%eax,4),%eax
  10170e:	a8 01                	test   $0x1,%al
  101710:	74 e6                	je     1016f8 <unprotect+0x14>
  101712:	83 ec 0c             	sub    $0xc,%esp
  101715:	25 00 f0 ff ff       	and    $0xfffff000,%eax
  10171a:	50                   	push   %eax
  10171b:	e8 5c 16 00 00       	call   102d7c <__cb_free>
  101720:	83 c4 10             	add    $0x10,%esp
  101723:	81 c3 00 00 40 00    	add    $0x400000,%ebx
  101729:	81 fb 00 00 00 80    	cmp    $0x80000000,%ebx
  10172f:	75 d5                	jne    101706 <unprotect+0x22>
  101731:	89 75 08             	mov    %esi,0x8(%ebp)
  101734:	8d 65 f8             	lea    -0x8(%ebp),%esp
  101737:	5b                   	pop    %ebx
  101738:	5e                   	pop    %esi
  101739:	5d                   	pop    %ebp
  10173a:	e9 3d 16 00 00       	jmp    102d7c <__cb_free>
  10173f:	90                   	nop

00101740 <map>:
  101740:	55                   	push   %ebp
  101741:	89 e5                	mov    %esp,%ebp
  101743:	57                   	push   %edi
  101744:	56                   	push   %esi
  101745:	53                   	push   %ebx
  101746:	83 ec 0c             	sub    $0xc,%esp
  101749:	8b 5d 0c             	mov    0xc(%ebp),%ebx
  10174c:	8b 75 14             	mov    0x14(%ebp),%esi
  10174f:	83 e6 01             	and    $0x1,%esi
  101752:	74 0a                	je     10175e <map+0x1e>
  101754:	83 7d 14 01          	cmpl   $0x1,0x14(%ebp)
  101758:	0f 85 9e 00 00 00    	jne    1017fc <map+0xbc>
  10175e:	f7 c3 ff 0f 00 00    	test   $0xfff,%ebx
  101764:	0f 85 f6 00 00 00    	jne    101860 <map+0x120>
  10176a:	f7 45 10 ff 0f 00 00 	testl  $0xfff,0x10(%ebp)
  101771:	0f 85 e9 00 00 00    	jne    101860 <map+0x120>
  101777:	81 fb ff ff ff 3f    	cmp    $0x3fffffff,%ebx
  10177d:	76 4d                	jbe    1017cc <map+0x8c>
  10177f:	81 fb ff ff ff 7f    	cmp    $0x7fffffff,%ebx
  101785:	77 45                	ja     1017cc <map+0x8c>
  101787:	89 da                	mov    %ebx,%edx
  101789:	c1 ea 16             	shr    $0x16,%edx
  10178c:	8b 45 08             	mov    0x8(%ebp),%eax
  10178f:	8b 40 0c             	mov    0xc(%eax),%eax
  101792:	8d 3c 90             	lea    (%eax,%edx,4),%edi
  101795:	8b 07                	mov    (%edi),%eax
  101797:	a8 01                	test   $0x1,%al
  101799:	74 55                	je     1017f0 <map+0xb0>
  10179b:	c1 eb 0a             	shr    $0xa,%ebx
  10179e:	81 e3 fc 0f 00 00    	and    $0xffc,%ebx
  1017a4:	25 00 f0 ff ff       	and    $0xfffff000,%eax
  1017a9:	01 c3                	add    %eax,%ebx
  1017ab:	85 f6                	test   %esi,%esi
  1017ad:	75 2d                	jne    1017dc <map+0x9c>
  1017af:	8b 45 14             	mov    0x14(%ebp),%eax
  1017b2:	d1 f8                	sar    %eax
  1017b4:	83 e0 02             	and    $0x2,%eax
  1017b7:	8b 55 10             	mov    0x10(%ebp),%edx
  1017ba:	83 ca 05             	or     $0x5,%edx
  1017bd:	09 d0                	or     %edx,%eax
  1017bf:	89 03                	mov    %eax,(%ebx)
  1017c1:	89 f0                	mov    %esi,%eax
  1017c3:	8d 65 f4             	lea    -0xc(%ebp),%esp
  1017c6:	5b                   	pop    %ebx
  1017c7:	5e                   	pop    %esi
  1017c8:	5f                   	pop    %edi
  1017c9:	5d                   	pop    %ebp
  1017ca:	c3                   	ret    
  1017cb:	90                   	nop
  1017cc:	be 01 00 00 00       	mov    $0x1,%esi
  1017d1:	89 f0                	mov    %esi,%eax
  1017d3:	8d 65 f4             	lea    -0xc(%ebp),%esp
  1017d6:	5b                   	pop    %ebx
  1017d7:	5e                   	pop    %esi
  1017d8:	5f                   	pop    %edi
  1017d9:	5d                   	pop    %ebp
  1017da:	c3                   	ret    
  1017db:	90                   	nop
  1017dc:	c7 03 00 00 00 00    	movl   $0x0,(%ebx)
  1017e2:	31 f6                	xor    %esi,%esi
  1017e4:	89 f0                	mov    %esi,%eax
  1017e6:	8d 65 f4             	lea    -0xc(%ebp),%esp
  1017e9:	5b                   	pop    %ebx
  1017ea:	5e                   	pop    %esi
  1017eb:	5f                   	pop    %edi
  1017ec:	5d                   	pop    %ebp
  1017ed:	c3                   	ret    
  1017ee:	66 90                	xchg   %ax,%ax
  1017f0:	e8 af fc ff ff       	call   1014a4 <pgalloc>
  1017f5:	83 c8 07             	or     $0x7,%eax
  1017f8:	89 07                	mov    %eax,(%edi)
  1017fa:	eb 9f                	jmp    10179b <map+0x5b>
  1017fc:	bb ad 64 10 00       	mov    $0x1064ad,%ebx
  101801:	b8 41 00 00 00       	mov    $0x41,%eax
  101806:	83 ec 0c             	sub    $0xc,%esp
  101809:	50                   	push   %eax
  10180a:	e8 f1 e7 ff ff       	call   100000 <_putc>
  10180f:	43                   	inc    %ebx
  101810:	0f be 03             	movsbl (%ebx),%eax
  101813:	83 c4 10             	add    $0x10,%esp
  101816:	84 c0                	test   %al,%al
  101818:	75 ec                	jne    101806 <map+0xc6>
  10181a:	bb 61 68 10 00       	mov    $0x106861,%ebx
  10181f:	b8 69 00 00 00       	mov    $0x69,%eax
  101824:	83 ec 0c             	sub    $0xc,%esp
  101827:	50                   	push   %eax
  101828:	e8 d3 e7 ff ff       	call   100000 <_putc>
  10182d:	43                   	inc    %ebx
  10182e:	0f be 03             	movsbl (%ebx),%eax
  101831:	83 c4 10             	add    $0x10,%esp
  101834:	84 c0                	test   %al,%al
  101836:	75 ec                	jne    101824 <map+0xe4>
  101838:	bb 7a 68 10 00       	mov    $0x10687a,%ebx
  10183d:	b8 20 00 00 00       	mov    $0x20,%eax
  101842:	83 ec 0c             	sub    $0xc,%esp
  101845:	50                   	push   %eax
  101846:	e8 b5 e7 ff ff       	call   100000 <_putc>
  10184b:	43                   	inc    %ebx
  10184c:	0f be 03             	movsbl (%ebx),%eax
  10184f:	83 c4 10             	add    $0x10,%esp
  101852:	84 c0                	test   %al,%al
  101854:	75 ec                	jne    101842 <map+0x102>
  101856:	83 ec 0c             	sub    $0xc,%esp
  101859:	6a 01                	push   $0x1
  10185b:	e8 b0 e7 ff ff       	call   100010 <_halt>
  101860:	bb ad 64 10 00       	mov    $0x1064ad,%ebx
  101865:	b8 41 00 00 00       	mov    $0x41,%eax
  10186a:	83 ec 0c             	sub    $0xc,%esp
  10186d:	50                   	push   %eax
  10186e:	e8 8d e7 ff ff       	call   100000 <_putc>
  101873:	43                   	inc    %ebx
  101874:	0f be 03             	movsbl (%ebx),%eax
  101877:	83 c4 10             	add    $0x10,%esp
  10187a:	84 c0                	test   %al,%al
  10187c:	75 ec                	jne    10186a <map+0x12a>
  10187e:	bb 96 68 10 00       	mov    $0x106896,%ebx
  101883:	b8 75 00 00 00       	mov    $0x75,%eax
  101888:	83 ec 0c             	sub    $0xc,%esp
  10188b:	50                   	push   %eax
  10188c:	e8 6f e7 ff ff       	call   100000 <_putc>
  101891:	43                   	inc    %ebx
  101892:	0f be 03             	movsbl (%ebx),%eax
  101895:	83 c4 10             	add    $0x10,%esp
  101898:	84 c0                	test   %al,%al
  10189a:	75 ec                	jne    101888 <map+0x148>
  10189c:	bb af 68 10 00       	mov    $0x1068af,%ebx
  1018a1:	b8 20 00 00 00       	mov    $0x20,%eax
  1018a6:	83 ec 0c             	sub    $0xc,%esp
  1018a9:	50                   	push   %eax
  1018aa:	e8 51 e7 ff ff       	call   100000 <_putc>
  1018af:	43                   	inc    %ebx
  1018b0:	0f be 03             	movsbl (%ebx),%eax
  1018b3:	83 c4 10             	add    $0x10,%esp
  1018b6:	84 c0                	test   %al,%al
  1018b8:	75 ec                	jne    1018a6 <map+0x166>
  1018ba:	eb 9a                	jmp    101856 <map+0x116>

001018bc <ucontext>:
  1018bc:	55                   	push   %ebp
  1018bd:	89 e5                	mov    %esp,%ebp
  1018bf:	56                   	push   %esi
  1018c0:	53                   	push   %ebx
  1018c1:	8b 75 10             	mov    0x10(%ebp),%esi
  1018c4:	8b 45 14             	mov    0x14(%ebp),%eax
  1018c7:	8b 5d 18             	mov    0x18(%ebp),%ebx
  1018ca:	31 c9                	xor    %ecx,%ecx
  1018cc:	31 d2                	xor    %edx,%edx
  1018ce:	89 0c 10             	mov    %ecx,(%eax,%edx,1)
  1018d1:	83 c2 04             	add    $0x4,%edx
  1018d4:	83 fa 44             	cmp    $0x44,%edx
  1018d7:	72 f5                	jb     1018ce <ucontext+0x12>
  1018d9:	8b 55 08             	mov    0x8(%ebp),%edx
  1018dc:	89 10                	mov    %edx,(%eax)
  1018de:	8b 55 20             	mov    0x20(%ebp),%edx
  1018e1:	89 50 04             	mov    %edx,0x4(%eax)
  1018e4:	89 70 20             	mov    %esi,0x20(%eax)
  1018e7:	8b 55 1c             	mov    0x1c(%ebp),%edx
  1018ea:	89 50 24             	mov    %edx,0x24(%eax)
  1018ed:	c7 40 28 00 02 00 00 	movl   $0x200,0x28(%eax)
  1018f4:	c7 40 2c 1b 00 00 00 	movl   $0x1b,0x2c(%eax)
  1018fb:	c7 40 30 23 00 00 00 	movl   $0x23,0x30(%eax)
  101902:	c7 40 34 23 00 00 00 	movl   $0x23,0x34(%eax)
  101909:	c7 40 38 23 00 00 00 	movl   $0x23,0x38(%eax)
  101910:	c7 40 3c 10 00 00 00 	movl   $0x10,0x3c(%eax)
  101917:	89 58 40             	mov    %ebx,0x40(%eax)
  10191a:	5b                   	pop    %ebx
  10191b:	5e                   	pop    %esi
  10191c:	5d                   	pop    %ebp
  10191d:	c3                   	ret    
  10191e:	66 90                	xchg   %ax,%ax

00101920 <_cb_alloc>:
  101920:	55                   	push   %ebp
  101921:	89 e5                	mov    %esp,%ebp
  101923:	c7 45 08 00 10 00 00 	movl   $0x1000,0x8(%ebp)
  10192a:	5d                   	pop    %ebp
  10192b:	ff 25 28 57 11 00    	jmp    *0x115728
  101931:	66 90                	xchg   %ax,%ax
  101933:	90                   	nop

00101934 <_cb_free>:
  101934:	55                   	push   %ebp
  101935:	89 e5                	mov    %esp,%ebp
  101937:	5d                   	pop    %ebp
  101938:	ff 25 24 57 11 00    	jmp    *0x115724
  10193e:	66 90                	xchg   %ax,%ax

00101940 <trace_lock>:
  101940:	55                   	push   %ebp
  101941:	89 e5                	mov    %esp,%ebp
  101943:	53                   	push   %ebx
  101944:	83 ec 14             	sub    $0x14,%esp
  101947:	9c                   	pushf  
  101948:	58                   	pop    %eax
  101949:	89 45 f4             	mov    %eax,-0xc(%ebp)
  10194c:	8b 5d f4             	mov    -0xc(%ebp),%ebx
  10194f:	e8 cc ed ff ff       	call   100720 <_cpu>
  101954:	81 e3 00 02 00 00    	and    $0x200,%ebx
  10195a:	89 1c 85 40 57 11 00 	mov    %ebx,0x115740(,%eax,4)
  101961:	fa                   	cli    
  101962:	eb 02                	jmp    101966 <trace_lock+0x26>
  101964:	f3 90                	pause  
  101966:	83 ec 08             	sub    $0x8,%esp
  101969:	6a 01                	push   $0x1
  10196b:	68 60 57 11 00       	push   $0x115760
  101970:	e8 bb ed ff ff       	call   100730 <_atomic_xchg>
  101975:	83 c4 10             	add    $0x10,%esp
  101978:	85 c0                	test   %eax,%eax
  10197a:	75 e8                	jne    101964 <trace_lock+0x24>
  10197c:	8b 5d fc             	mov    -0x4(%ebp),%ebx
  10197f:	c9                   	leave  
  101980:	c3                   	ret    
  101981:	66 90                	xchg   %ax,%ax
  101983:	90                   	nop

00101984 <trace_unlock>:
  101984:	55                   	push   %ebp
  101985:	89 e5                	mov    %esp,%ebp
  101987:	83 ec 10             	sub    $0x10,%esp
  10198a:	6a 00                	push   $0x0
  10198c:	68 60 57 11 00       	push   $0x115760
  101991:	e8 9a ed ff ff       	call   100730 <_atomic_xchg>
  101996:	e8 85 ed ff ff       	call   100720 <_cpu>
  10199b:	83 c4 10             	add    $0x10,%esp
  10199e:	8b 04 85 40 57 11 00 	mov    0x115740(,%eax,4),%eax
  1019a5:	85 c0                	test   %eax,%eax
  1019a7:	74 01                	je     1019aa <trace_unlock+0x26>
  1019a9:	fb                   	sti    
  1019aa:	c9                   	leave  
  1019ab:	c3                   	ret    

001019ac <_trace_on>:
  1019ac:	55                   	push   %ebp
  1019ad:	89 e5                	mov    %esp,%ebp
  1019af:	53                   	push   %ebx
  1019b0:	50                   	push   %eax
  1019b1:	8b 5d 08             	mov    0x8(%ebp),%ebx
  1019b4:	e8 87 ff ff ff       	call   101940 <trace_lock>
  1019b9:	a1 64 57 11 00       	mov    0x115764,%eax
  1019be:	09 d8                	or     %ebx,%eax
  1019c0:	a3 64 57 11 00       	mov    %eax,0x115764
  1019c5:	5a                   	pop    %edx
  1019c6:	5b                   	pop    %ebx
  1019c7:	5d                   	pop    %ebp
  1019c8:	e9 b7 ff ff ff       	jmp    101984 <trace_unlock>
  1019cd:	66 90                	xchg   %ax,%ax
  1019cf:	90                   	nop

001019d0 <_trace_off>:
  1019d0:	55                   	push   %ebp
  1019d1:	89 e5                	mov    %esp,%ebp
  1019d3:	53                   	push   %ebx
  1019d4:	50                   	push   %eax
  1019d5:	8b 5d 08             	mov    0x8(%ebp),%ebx
  1019d8:	e8 63 ff ff ff       	call   101940 <trace_lock>
  1019dd:	a1 64 57 11 00       	mov    0x115764,%eax
  1019e2:	f7 d3                	not    %ebx
  1019e4:	21 c3                	and    %eax,%ebx
  1019e6:	89 1d 64 57 11 00    	mov    %ebx,0x115764
  1019ec:	5a                   	pop    %edx
  1019ed:	5b                   	pop    %ebx
  1019ee:	5d                   	pop    %ebp
  1019ef:	e9 90 ff ff ff       	jmp    101984 <trace_unlock>

001019f4 <_cte_init>:
  1019f4:	55                   	push   %ebp
  1019f5:	89 e5                	mov    %esp,%ebp
  1019f7:	57                   	push   %edi
  1019f8:	56                   	push   %esi
  1019f9:	53                   	push   %ebx
  1019fa:	83 ec 6c             	sub    $0x6c,%esp
  1019fd:	a1 64 57 11 00       	mov    0x115764,%eax
  101a02:	25 01 00 02 00       	and    $0x20001,%eax
  101a07:	3d 01 00 02 00       	cmp    $0x20001,%eax
  101a0c:	0f 84 d2 00 00 00    	je     101ae4 <_cte_init+0xf0>
  101a12:	83 ec 0c             	sub    $0xc,%esp
  101a15:	ff 75 08             	pushl  0x8(%ebp)
  101a18:	e8 cf ed ff ff       	call   1007ec <cte_init>
  101a1d:	89 45 90             	mov    %eax,-0x70(%ebp)
  101a20:	a1 64 57 11 00       	mov    0x115764,%eax
  101a25:	25 02 00 02 00       	and    $0x20002,%eax
  101a2a:	83 c4 10             	add    $0x10,%esp
  101a2d:	3d 02 00 02 00       	cmp    $0x20002,%eax
  101a32:	74 0c                	je     101a40 <_cte_init+0x4c>
  101a34:	8b 45 90             	mov    -0x70(%ebp),%eax
  101a37:	8d 65 f4             	lea    -0xc(%ebp),%esp
  101a3a:	5b                   	pop    %ebx
  101a3b:	5e                   	pop    %esi
  101a3c:	5f                   	pop    %edi
  101a3d:	5d                   	pop    %ebp
  101a3e:	c3                   	ret    
  101a3f:	90                   	nop
  101a40:	8b 45 90             	mov    -0x70(%ebp),%eax
  101a43:	89 45 a4             	mov    %eax,-0x5c(%ebp)
  101a46:	e8 d5 ec ff ff       	call   100720 <_cpu>
  101a4b:	66 89 45 b4          	mov    %ax,-0x4c(%ebp)
  101a4f:	66 c7 45 b6 02 00    	movw   $0x2,-0x4a(%ebp)
  101a55:	c7 45 b8 00 00 00 00 	movl   $0x0,-0x48(%ebp)
  101a5c:	c7 45 bc ec 07 10 00 	movl   $0x1007ec,-0x44(%ebp)
  101a63:	31 c0                	xor    %eax,%eax
  101a65:	8b 54 05 b4          	mov    -0x4c(%ebp,%eax,1),%edx
  101a69:	89 54 05 cc          	mov    %edx,-0x34(%ebp,%eax,1)
  101a6d:	83 c0 04             	add    $0x4,%eax
  101a70:	83 f8 0c             	cmp    $0xc,%eax
  101a73:	72 f0                	jb     101a65 <_cte_init+0x71>
  101a75:	e8 c6 fe ff ff       	call   101940 <trace_lock>
  101a7a:	8d 5d cc             	lea    -0x34(%ebp),%ebx
  101a7d:	8d 7d d8             	lea    -0x28(%ebp),%edi
  101a80:	b9 fd 02 00 00       	mov    $0x2fd,%ecx
  101a85:	be f8 02 00 00       	mov    $0x2f8,%esi
  101a8a:	66 90                	xchg   %ax,%ax
  101a8c:	8a 03                	mov    (%ebx),%al
  101a8e:	88 45 97             	mov    %al,-0x69(%ebp)
  101a91:	8d 76 00             	lea    0x0(%esi),%esi
  101a94:	89 ca                	mov    %ecx,%edx
  101a96:	ec                   	in     (%dx),%al
  101a97:	a8 20                	test   $0x20,%al
  101a99:	74 f9                	je     101a94 <_cte_init+0xa0>
  101a9b:	8a 45 97             	mov    -0x69(%ebp),%al
  101a9e:	89 f2                	mov    %esi,%edx
  101aa0:	ee                   	out    %al,(%dx)
  101aa1:	43                   	inc    %ebx
  101aa2:	39 fb                	cmp    %edi,%ebx
  101aa4:	75 e6                	jne    101a8c <_cte_init+0x98>
  101aa6:	8d 5d a4             	lea    -0x5c(%ebp),%ebx
  101aa9:	8d 75 a8             	lea    -0x58(%ebp),%esi
  101aac:	b9 fd 02 00 00       	mov    $0x2fd,%ecx
  101ab1:	bf f8 02 00 00       	mov    $0x2f8,%edi
  101ab6:	66 90                	xchg   %ax,%ax
  101ab8:	8a 03                	mov    (%ebx),%al
  101aba:	88 45 97             	mov    %al,-0x69(%ebp)
  101abd:	8d 76 00             	lea    0x0(%esi),%esi
  101ac0:	89 ca                	mov    %ecx,%edx
  101ac2:	ec                   	in     (%dx),%al
  101ac3:	a8 20                	test   $0x20,%al
  101ac5:	74 f9                	je     101ac0 <_cte_init+0xcc>
  101ac7:	8a 45 97             	mov    -0x69(%ebp),%al
  101aca:	89 fa                	mov    %edi,%edx
  101acc:	ee                   	out    %al,(%dx)
  101acd:	43                   	inc    %ebx
  101ace:	39 de                	cmp    %ebx,%esi
  101ad0:	75 e6                	jne    101ab8 <_cte_init+0xc4>
  101ad2:	e8 ad fe ff ff       	call   101984 <trace_unlock>
  101ad7:	8b 45 90             	mov    -0x70(%ebp),%eax
  101ada:	8d 65 f4             	lea    -0xc(%ebp),%esp
  101add:	5b                   	pop    %ebx
  101ade:	5e                   	pop    %esi
  101adf:	5f                   	pop    %edi
  101ae0:	5d                   	pop    %ebp
  101ae1:	c3                   	ret    
  101ae2:	66 90                	xchg   %ax,%ax
  101ae4:	8b 45 08             	mov    0x8(%ebp),%eax
  101ae7:	89 45 d8             	mov    %eax,-0x28(%ebp)
  101aea:	c7 45 dc 00 00 00 00 	movl   $0x0,-0x24(%ebp)
  101af1:	c7 45 e0 00 00 00 00 	movl   $0x0,-0x20(%ebp)
  101af8:	c7 45 e4 00 00 00 00 	movl   $0x0,-0x1c(%ebp)
  101aff:	e8 1c ec ff ff       	call   100720 <_cpu>
  101b04:	66 89 45 a8          	mov    %ax,-0x58(%ebp)
  101b08:	66 c7 45 aa 01 00    	movw   $0x1,-0x56(%ebp)
  101b0e:	c7 45 ac 00 00 00 00 	movl   $0x0,-0x54(%ebp)
  101b15:	c7 45 b0 ec 07 10 00 	movl   $0x1007ec,-0x50(%ebp)
  101b1c:	31 c0                	xor    %eax,%eax
  101b1e:	8b 54 05 a8          	mov    -0x58(%ebp,%eax,1),%edx
  101b22:	89 54 05 c0          	mov    %edx,-0x40(%ebp,%eax,1)
  101b26:	83 c0 04             	add    $0x4,%eax
  101b29:	83 f8 0c             	cmp    $0xc,%eax
  101b2c:	72 f0                	jb     101b1e <_cte_init+0x12a>
  101b2e:	e8 0d fe ff ff       	call   101940 <trace_lock>
  101b33:	8d 5d c0             	lea    -0x40(%ebp),%ebx
  101b36:	8d 75 cc             	lea    -0x34(%ebp),%esi
  101b39:	b9 fd 02 00 00       	mov    $0x2fd,%ecx
  101b3e:	bf f8 02 00 00       	mov    $0x2f8,%edi
  101b43:	90                   	nop
  101b44:	8a 03                	mov    (%ebx),%al
  101b46:	88 45 97             	mov    %al,-0x69(%ebp)
  101b49:	8d 76 00             	lea    0x0(%esi),%esi
  101b4c:	89 ca                	mov    %ecx,%edx
  101b4e:	ec                   	in     (%dx),%al
  101b4f:	a8 20                	test   $0x20,%al
  101b51:	74 f9                	je     101b4c <_cte_init+0x158>
  101b53:	8a 45 97             	mov    -0x69(%ebp),%al
  101b56:	89 fa                	mov    %edi,%edx
  101b58:	ee                   	out    %al,(%dx)
  101b59:	43                   	inc    %ebx
  101b5a:	39 f3                	cmp    %esi,%ebx
  101b5c:	75 e6                	jne    101b44 <_cte_init+0x150>
  101b5e:	8d 5d d8             	lea    -0x28(%ebp),%ebx
  101b61:	8d 75 e8             	lea    -0x18(%ebp),%esi
  101b64:	b9 fd 02 00 00       	mov    $0x2fd,%ecx
  101b69:	bf f8 02 00 00       	mov    $0x2f8,%edi
  101b6e:	66 90                	xchg   %ax,%ax
  101b70:	8a 03                	mov    (%ebx),%al
  101b72:	88 45 97             	mov    %al,-0x69(%ebp)
  101b75:	8d 76 00             	lea    0x0(%esi),%esi
  101b78:	89 ca                	mov    %ecx,%edx
  101b7a:	ec                   	in     (%dx),%al
  101b7b:	a8 20                	test   $0x20,%al
  101b7d:	74 f9                	je     101b78 <_cte_init+0x184>
  101b7f:	8a 45 97             	mov    -0x69(%ebp),%al
  101b82:	89 fa                	mov    %edi,%edx
  101b84:	ee                   	out    %al,(%dx)
  101b85:	43                   	inc    %ebx
  101b86:	39 de                	cmp    %ebx,%esi
  101b88:	75 e6                	jne    101b70 <_cte_init+0x17c>
  101b8a:	e8 f5 fd ff ff       	call   101984 <trace_unlock>
  101b8f:	e9 7e fe ff ff       	jmp    101a12 <_cte_init+0x1e>

00101b94 <_kcontext>:
  101b94:	55                   	push   %ebp
  101b95:	89 e5                	mov    %esp,%ebp
  101b97:	57                   	push   %edi
  101b98:	56                   	push   %esi
  101b99:	53                   	push   %ebx
  101b9a:	83 ec 6c             	sub    $0x6c,%esp
  101b9d:	a1 64 57 11 00       	mov    0x115764,%eax
  101ba2:	25 01 00 02 00       	and    $0x20001,%eax
  101ba7:	3d 01 00 02 00       	cmp    $0x20001,%eax
  101bac:	0f 84 da 00 00 00    	je     101c8c <_kcontext+0xf8>
  101bb2:	ff 75 14             	pushl  0x14(%ebp)
  101bb5:	ff 75 10             	pushl  0x10(%ebp)
  101bb8:	ff 75 0c             	pushl  0xc(%ebp)
  101bbb:	ff 75 08             	pushl  0x8(%ebp)
  101bbe:	e8 c1 f2 ff ff       	call   100e84 <kcontext>
  101bc3:	89 45 90             	mov    %eax,-0x70(%ebp)
  101bc6:	a1 64 57 11 00       	mov    0x115764,%eax
  101bcb:	25 02 00 02 00       	and    $0x20002,%eax
  101bd0:	83 c4 10             	add    $0x10,%esp
  101bd3:	3d 02 00 02 00       	cmp    $0x20002,%eax
  101bd8:	74 0e                	je     101be8 <_kcontext+0x54>
  101bda:	8b 45 90             	mov    -0x70(%ebp),%eax
  101bdd:	8d 65 f4             	lea    -0xc(%ebp),%esp
  101be0:	5b                   	pop    %ebx
  101be1:	5e                   	pop    %esi
  101be2:	5f                   	pop    %edi
  101be3:	5d                   	pop    %ebp
  101be4:	c3                   	ret    
  101be5:	8d 76 00             	lea    0x0(%esi),%esi
  101be8:	8b 45 90             	mov    -0x70(%ebp),%eax
  101beb:	89 45 a4             	mov    %eax,-0x5c(%ebp)
  101bee:	e8 2d eb ff ff       	call   100720 <_cpu>
  101bf3:	66 89 45 b4          	mov    %ax,-0x4c(%ebp)
  101bf7:	66 c7 45 b6 02 00    	movw   $0x2,-0x4a(%ebp)
  101bfd:	c7 45 b8 00 00 00 00 	movl   $0x0,-0x48(%ebp)
  101c04:	c7 45 bc 84 0e 10 00 	movl   $0x100e84,-0x44(%ebp)
  101c0b:	31 c0                	xor    %eax,%eax
  101c0d:	8b 54 05 b4          	mov    -0x4c(%ebp,%eax,1),%edx
  101c11:	89 54 05 cc          	mov    %edx,-0x34(%ebp,%eax,1)
  101c15:	83 c0 04             	add    $0x4,%eax
  101c18:	83 f8 0c             	cmp    $0xc,%eax
  101c1b:	72 f0                	jb     101c0d <_kcontext+0x79>
  101c1d:	e8 1e fd ff ff       	call   101940 <trace_lock>
  101c22:	8d 5d cc             	lea    -0x34(%ebp),%ebx
  101c25:	8d 7d d8             	lea    -0x28(%ebp),%edi
  101c28:	b9 fd 02 00 00       	mov    $0x2fd,%ecx
  101c2d:	be f8 02 00 00       	mov    $0x2f8,%esi
  101c32:	66 90                	xchg   %ax,%ax
  101c34:	8a 03                	mov    (%ebx),%al
  101c36:	88 45 97             	mov    %al,-0x69(%ebp)
  101c39:	8d 76 00             	lea    0x0(%esi),%esi
  101c3c:	89 ca                	mov    %ecx,%edx
  101c3e:	ec                   	in     (%dx),%al
  101c3f:	a8 20                	test   $0x20,%al
  101c41:	74 f9                	je     101c3c <_kcontext+0xa8>
  101c43:	8a 45 97             	mov    -0x69(%ebp),%al
  101c46:	89 f2                	mov    %esi,%edx
  101c48:	ee                   	out    %al,(%dx)
  101c49:	43                   	inc    %ebx
  101c4a:	39 fb                	cmp    %edi,%ebx
  101c4c:	75 e6                	jne    101c34 <_kcontext+0xa0>
  101c4e:	8d 5d a4             	lea    -0x5c(%ebp),%ebx
  101c51:	8d 75 a8             	lea    -0x58(%ebp),%esi
  101c54:	b9 fd 02 00 00       	mov    $0x2fd,%ecx
  101c59:	bf f8 02 00 00       	mov    $0x2f8,%edi
  101c5e:	66 90                	xchg   %ax,%ax
  101c60:	8a 03                	mov    (%ebx),%al
  101c62:	88 45 97             	mov    %al,-0x69(%ebp)
  101c65:	8d 76 00             	lea    0x0(%esi),%esi
  101c68:	89 ca                	mov    %ecx,%edx
  101c6a:	ec                   	in     (%dx),%al
  101c6b:	a8 20                	test   $0x20,%al
  101c6d:	74 f9                	je     101c68 <_kcontext+0xd4>
  101c6f:	8a 45 97             	mov    -0x69(%ebp),%al
  101c72:	89 fa                	mov    %edi,%edx
  101c74:	ee                   	out    %al,(%dx)
  101c75:	43                   	inc    %ebx
  101c76:	39 de                	cmp    %ebx,%esi
  101c78:	75 e6                	jne    101c60 <_kcontext+0xcc>
  101c7a:	e8 05 fd ff ff       	call   101984 <trace_unlock>
  101c7f:	8b 45 90             	mov    -0x70(%ebp),%eax
  101c82:	8d 65 f4             	lea    -0xc(%ebp),%esp
  101c85:	5b                   	pop    %ebx
  101c86:	5e                   	pop    %esi
  101c87:	5f                   	pop    %edi
  101c88:	5d                   	pop    %ebp
  101c89:	c3                   	ret    
  101c8a:	66 90                	xchg   %ax,%ax
  101c8c:	8b 45 10             	mov    0x10(%ebp),%eax
  101c8f:	89 45 d8             	mov    %eax,-0x28(%ebp)
  101c92:	8b 45 14             	mov    0x14(%ebp),%eax
  101c95:	89 45 dc             	mov    %eax,-0x24(%ebp)
  101c98:	c7 45 e0 00 00 00 00 	movl   $0x0,-0x20(%ebp)
  101c9f:	c7 45 e4 00 00 00 00 	movl   $0x0,-0x1c(%ebp)
  101ca6:	e8 75 ea ff ff       	call   100720 <_cpu>
  101cab:	66 89 45 a8          	mov    %ax,-0x58(%ebp)
  101caf:	66 c7 45 aa 01 00    	movw   $0x1,-0x56(%ebp)
  101cb5:	c7 45 ac 00 00 00 00 	movl   $0x0,-0x54(%ebp)
  101cbc:	c7 45 b0 84 0e 10 00 	movl   $0x100e84,-0x50(%ebp)
  101cc3:	31 c0                	xor    %eax,%eax
  101cc5:	8b 54 05 a8          	mov    -0x58(%ebp,%eax,1),%edx
  101cc9:	89 54 05 c0          	mov    %edx,-0x40(%ebp,%eax,1)
  101ccd:	83 c0 04             	add    $0x4,%eax
  101cd0:	83 f8 0c             	cmp    $0xc,%eax
  101cd3:	72 f0                	jb     101cc5 <_kcontext+0x131>
  101cd5:	e8 66 fc ff ff       	call   101940 <trace_lock>
  101cda:	8d 5d c0             	lea    -0x40(%ebp),%ebx
  101cdd:	8d 75 cc             	lea    -0x34(%ebp),%esi
  101ce0:	b9 fd 02 00 00       	mov    $0x2fd,%ecx
  101ce5:	bf f8 02 00 00       	mov    $0x2f8,%edi
  101cea:	66 90                	xchg   %ax,%ax
  101cec:	8a 03                	mov    (%ebx),%al
  101cee:	88 45 97             	mov    %al,-0x69(%ebp)
  101cf1:	8d 76 00             	lea    0x0(%esi),%esi
  101cf4:	89 ca                	mov    %ecx,%edx
  101cf6:	ec                   	in     (%dx),%al
  101cf7:	a8 20                	test   $0x20,%al
  101cf9:	74 f9                	je     101cf4 <_kcontext+0x160>
  101cfb:	8a 45 97             	mov    -0x69(%ebp),%al
  101cfe:	89 fa                	mov    %edi,%edx
  101d00:	ee                   	out    %al,(%dx)
  101d01:	43                   	inc    %ebx
  101d02:	39 f3                	cmp    %esi,%ebx
  101d04:	75 e6                	jne    101cec <_kcontext+0x158>
  101d06:	8d 5d d8             	lea    -0x28(%ebp),%ebx
  101d09:	8d 75 e8             	lea    -0x18(%ebp),%esi
  101d0c:	b9 fd 02 00 00       	mov    $0x2fd,%ecx
  101d11:	bf f8 02 00 00       	mov    $0x2f8,%edi
  101d16:	66 90                	xchg   %ax,%ax
  101d18:	8a 03                	mov    (%ebx),%al
  101d1a:	88 45 97             	mov    %al,-0x69(%ebp)
  101d1d:	8d 76 00             	lea    0x0(%esi),%esi
  101d20:	89 ca                	mov    %ecx,%edx
  101d22:	ec                   	in     (%dx),%al
  101d23:	a8 20                	test   $0x20,%al
  101d25:	74 f9                	je     101d20 <_kcontext+0x18c>
  101d27:	8a 45 97             	mov    -0x69(%ebp),%al
  101d2a:	89 fa                	mov    %edi,%edx
  101d2c:	ee                   	out    %al,(%dx)
  101d2d:	43                   	inc    %ebx
  101d2e:	39 de                	cmp    %ebx,%esi
  101d30:	75 e6                	jne    101d18 <_kcontext+0x184>
  101d32:	e8 4d fc ff ff       	call   101984 <trace_unlock>
  101d37:	e9 76 fe ff ff       	jmp    101bb2 <_kcontext+0x1e>

00101d3c <_yield>:
  101d3c:	55                   	push   %ebp
  101d3d:	89 e5                	mov    %esp,%ebp
  101d3f:	57                   	push   %edi
  101d40:	56                   	push   %esi
  101d41:	53                   	push   %ebx
  101d42:	83 ec 6c             	sub    $0x6c,%esp
  101d45:	a1 64 57 11 00       	mov    0x115764,%eax
  101d4a:	25 01 00 02 00       	and    $0x20001,%eax
  101d4f:	3d 01 00 02 00       	cmp    $0x20001,%eax
  101d54:	0f 84 ba 00 00 00    	je     101e14 <_yield+0xd8>
  101d5a:	e8 99 ef ff ff       	call   100cf8 <yield>
  101d5f:	a1 64 57 11 00       	mov    0x115764,%eax
  101d64:	25 02 00 02 00       	and    $0x20002,%eax
  101d69:	3d 02 00 02 00       	cmp    $0x20002,%eax
  101d6e:	74 08                	je     101d78 <_yield+0x3c>
  101d70:	83 c4 6c             	add    $0x6c,%esp
  101d73:	5b                   	pop    %ebx
  101d74:	5e                   	pop    %esi
  101d75:	5f                   	pop    %edi
  101d76:	5d                   	pop    %ebp
  101d77:	c3                   	ret    
  101d78:	c7 45 a4 00 00 00 00 	movl   $0x0,-0x5c(%ebp)
  101d7f:	e8 9c e9 ff ff       	call   100720 <_cpu>
  101d84:	66 89 45 b4          	mov    %ax,-0x4c(%ebp)
  101d88:	66 c7 45 b6 02 00    	movw   $0x2,-0x4a(%ebp)
  101d8e:	c7 45 b8 00 00 00 00 	movl   $0x0,-0x48(%ebp)
  101d95:	c7 45 bc f8 0c 10 00 	movl   $0x100cf8,-0x44(%ebp)
  101d9c:	31 c0                	xor    %eax,%eax
  101d9e:	8b 54 05 b4          	mov    -0x4c(%ebp,%eax,1),%edx
  101da2:	89 54 05 cc          	mov    %edx,-0x34(%ebp,%eax,1)
  101da6:	83 c0 04             	add    $0x4,%eax
  101da9:	83 f8 0c             	cmp    $0xc,%eax
  101dac:	72 f0                	jb     101d9e <_yield+0x62>
  101dae:	e8 8d fb ff ff       	call   101940 <trace_lock>
  101db3:	8d 5d cc             	lea    -0x34(%ebp),%ebx
  101db6:	8d 7d d8             	lea    -0x28(%ebp),%edi
  101db9:	b9 fd 02 00 00       	mov    $0x2fd,%ecx
  101dbe:	be f8 02 00 00       	mov    $0x2f8,%esi
  101dc3:	90                   	nop
  101dc4:	8a 03                	mov    (%ebx),%al
  101dc6:	88 45 97             	mov    %al,-0x69(%ebp)
  101dc9:	8d 76 00             	lea    0x0(%esi),%esi
  101dcc:	89 ca                	mov    %ecx,%edx
  101dce:	ec                   	in     (%dx),%al
  101dcf:	a8 20                	test   $0x20,%al
  101dd1:	74 f9                	je     101dcc <_yield+0x90>
  101dd3:	8a 45 97             	mov    -0x69(%ebp),%al
  101dd6:	89 f2                	mov    %esi,%edx
  101dd8:	ee                   	out    %al,(%dx)
  101dd9:	43                   	inc    %ebx
  101dda:	39 fb                	cmp    %edi,%ebx
  101ddc:	75 e6                	jne    101dc4 <_yield+0x88>
  101dde:	8d 5d a4             	lea    -0x5c(%ebp),%ebx
  101de1:	8d 75 a8             	lea    -0x58(%ebp),%esi
  101de4:	c6 45 97 00          	movb   $0x0,-0x69(%ebp)
  101de8:	b9 fd 02 00 00       	mov    $0x2fd,%ecx
  101ded:	bf f8 02 00 00       	mov    $0x2f8,%edi
  101df2:	66 90                	xchg   %ax,%ax
  101df4:	89 ca                	mov    %ecx,%edx
  101df6:	ec                   	in     (%dx),%al
  101df7:	a8 20                	test   $0x20,%al
  101df9:	74 f9                	je     101df4 <_yield+0xb8>
  101dfb:	8a 45 97             	mov    -0x69(%ebp),%al
  101dfe:	89 fa                	mov    %edi,%edx
  101e00:	ee                   	out    %al,(%dx)
  101e01:	43                   	inc    %ebx
  101e02:	39 de                	cmp    %ebx,%esi
  101e04:	0f 84 aa 00 00 00    	je     101eb4 <_yield+0x178>
  101e0a:	8a 03                	mov    (%ebx),%al
  101e0c:	88 45 97             	mov    %al,-0x69(%ebp)
  101e0f:	eb e3                	jmp    101df4 <_yield+0xb8>
  101e11:	8d 76 00             	lea    0x0(%esi),%esi
  101e14:	31 d2                	xor    %edx,%edx
  101e16:	31 c0                	xor    %eax,%eax
  101e18:	89 54 05 d8          	mov    %edx,-0x28(%ebp,%eax,1)
  101e1c:	83 c0 04             	add    $0x4,%eax
  101e1f:	83 f8 10             	cmp    $0x10,%eax
  101e22:	72 f4                	jb     101e18 <_yield+0xdc>
  101e24:	e8 f7 e8 ff ff       	call   100720 <_cpu>
  101e29:	66 89 45 a8          	mov    %ax,-0x58(%ebp)
  101e2d:	66 c7 45 aa 01 00    	movw   $0x1,-0x56(%ebp)
  101e33:	c7 45 ac 00 00 00 00 	movl   $0x0,-0x54(%ebp)
  101e3a:	c7 45 b0 f8 0c 10 00 	movl   $0x100cf8,-0x50(%ebp)
  101e41:	31 c0                	xor    %eax,%eax
  101e43:	8b 54 05 a8          	mov    -0x58(%ebp,%eax,1),%edx
  101e47:	89 54 05 c0          	mov    %edx,-0x40(%ebp,%eax,1)
  101e4b:	83 c0 04             	add    $0x4,%eax
  101e4e:	83 f8 0c             	cmp    $0xc,%eax
  101e51:	72 f0                	jb     101e43 <_yield+0x107>
  101e53:	e8 e8 fa ff ff       	call   101940 <trace_lock>
  101e58:	8d 5d c0             	lea    -0x40(%ebp),%ebx
  101e5b:	8d 75 cc             	lea    -0x34(%ebp),%esi
  101e5e:	b9 fd 02 00 00       	mov    $0x2fd,%ecx
  101e63:	bf f8 02 00 00       	mov    $0x2f8,%edi
  101e68:	8a 03                	mov    (%ebx),%al
  101e6a:	88 45 97             	mov    %al,-0x69(%ebp)
  101e6d:	8d 76 00             	lea    0x0(%esi),%esi
  101e70:	89 ca                	mov    %ecx,%edx
  101e72:	ec                   	in     (%dx),%al
  101e73:	a8 20                	test   $0x20,%al
  101e75:	74 f9                	je     101e70 <_yield+0x134>
  101e77:	8a 45 97             	mov    -0x69(%ebp),%al
  101e7a:	89 fa                	mov    %edi,%edx
  101e7c:	ee                   	out    %al,(%dx)
  101e7d:	43                   	inc    %ebx
  101e7e:	39 f3                	cmp    %esi,%ebx
  101e80:	75 e6                	jne    101e68 <_yield+0x12c>
  101e82:	8d 5d d9             	lea    -0x27(%ebp),%ebx
  101e85:	8d 75 e8             	lea    -0x18(%ebp),%esi
  101e88:	c6 45 97 00          	movb   $0x0,-0x69(%ebp)
  101e8c:	b9 fd 02 00 00       	mov    $0x2fd,%ecx
  101e91:	bf f8 02 00 00       	mov    $0x2f8,%edi
  101e96:	66 90                	xchg   %ax,%ax
  101e98:	89 ca                	mov    %ecx,%edx
  101e9a:	ec                   	in     (%dx),%al
  101e9b:	a8 20                	test   $0x20,%al
  101e9d:	74 f9                	je     101e98 <_yield+0x15c>
  101e9f:	8a 45 97             	mov    -0x69(%ebp),%al
  101ea2:	89 fa                	mov    %edi,%edx
  101ea4:	ee                   	out    %al,(%dx)
  101ea5:	39 de                	cmp    %ebx,%esi
  101ea7:	74 17                	je     101ec0 <_yield+0x184>
  101ea9:	8a 03                	mov    (%ebx),%al
  101eab:	88 45 97             	mov    %al,-0x69(%ebp)
  101eae:	43                   	inc    %ebx
  101eaf:	eb e7                	jmp    101e98 <_yield+0x15c>
  101eb1:	8d 76 00             	lea    0x0(%esi),%esi
  101eb4:	83 c4 6c             	add    $0x6c,%esp
  101eb7:	5b                   	pop    %ebx
  101eb8:	5e                   	pop    %esi
  101eb9:	5f                   	pop    %edi
  101eba:	5d                   	pop    %ebp
  101ebb:	e9 c4 fa ff ff       	jmp    101984 <trace_unlock>
  101ec0:	e8 bf fa ff ff       	call   101984 <trace_unlock>
  101ec5:	e9 90 fe ff ff       	jmp    101d5a <_yield+0x1e>
  101eca:	66 90                	xchg   %ax,%ax

00101ecc <_intr_read>:
  101ecc:	55                   	push   %ebp
  101ecd:	89 e5                	mov    %esp,%ebp
  101ecf:	57                   	push   %edi
  101ed0:	56                   	push   %esi
  101ed1:	53                   	push   %ebx
  101ed2:	83 ec 6c             	sub    $0x6c,%esp
  101ed5:	a1 64 57 11 00       	mov    0x115764,%eax
  101eda:	25 01 00 02 00       	and    $0x20001,%eax
  101edf:	3d 01 00 02 00       	cmp    $0x20001,%eax
  101ee4:	0f 84 be 00 00 00    	je     101fa8 <_intr_read+0xdc>
  101eea:	e8 85 ee ff ff       	call   100d74 <intr_read>
  101eef:	89 c6                	mov    %eax,%esi
  101ef1:	a1 64 57 11 00       	mov    0x115764,%eax
  101ef6:	25 02 00 02 00       	and    $0x20002,%eax
  101efb:	3d 02 00 02 00       	cmp    $0x20002,%eax
  101f00:	74 0a                	je     101f0c <_intr_read+0x40>
  101f02:	89 f0                	mov    %esi,%eax
  101f04:	83 c4 6c             	add    $0x6c,%esp
  101f07:	5b                   	pop    %ebx
  101f08:	5e                   	pop    %esi
  101f09:	5f                   	pop    %edi
  101f0a:	5d                   	pop    %ebp
  101f0b:	c3                   	ret    
  101f0c:	89 75 a4             	mov    %esi,-0x5c(%ebp)
  101f0f:	e8 0c e8 ff ff       	call   100720 <_cpu>
  101f14:	66 89 45 b4          	mov    %ax,-0x4c(%ebp)
  101f18:	66 c7 45 b6 02 00    	movw   $0x2,-0x4a(%ebp)
  101f1e:	c7 45 b8 00 00 00 00 	movl   $0x0,-0x48(%ebp)
  101f25:	c7 45 bc 74 0d 10 00 	movl   $0x100d74,-0x44(%ebp)
  101f2c:	31 c0                	xor    %eax,%eax
  101f2e:	8b 54 05 b4          	mov    -0x4c(%ebp,%eax,1),%edx
  101f32:	89 54 05 cc          	mov    %edx,-0x34(%ebp,%eax,1)
  101f36:	83 c0 04             	add    $0x4,%eax
  101f39:	83 f8 0c             	cmp    $0xc,%eax
  101f3c:	72 f0                	jb     101f2e <_intr_read+0x62>
  101f3e:	e8 fd f9 ff ff       	call   101940 <trace_lock>
  101f43:	8d 5d cc             	lea    -0x34(%ebp),%ebx
  101f46:	b9 fd 02 00 00       	mov    $0x2fd,%ecx
  101f4b:	bf f8 02 00 00       	mov    $0x2f8,%edi
  101f50:	8a 03                	mov    (%ebx),%al
  101f52:	88 45 97             	mov    %al,-0x69(%ebp)
  101f55:	8d 76 00             	lea    0x0(%esi),%esi
  101f58:	89 ca                	mov    %ecx,%edx
  101f5a:	ec                   	in     (%dx),%al
  101f5b:	a8 20                	test   $0x20,%al
  101f5d:	74 f9                	je     101f58 <_intr_read+0x8c>
  101f5f:	8a 45 97             	mov    -0x69(%ebp),%al
  101f62:	89 fa                	mov    %edi,%edx
  101f64:	ee                   	out    %al,(%dx)
  101f65:	43                   	inc    %ebx
  101f66:	8d 45 d8             	lea    -0x28(%ebp),%eax
  101f69:	39 c3                	cmp    %eax,%ebx
  101f6b:	75 e3                	jne    101f50 <_intr_read+0x84>
  101f6d:	8d 5d a4             	lea    -0x5c(%ebp),%ebx
  101f70:	b9 fd 02 00 00       	mov    $0x2fd,%ecx
  101f75:	bf f8 02 00 00       	mov    $0x2f8,%edi
  101f7a:	66 90                	xchg   %ax,%ax
  101f7c:	8a 03                	mov    (%ebx),%al
  101f7e:	88 45 97             	mov    %al,-0x69(%ebp)
  101f81:	8d 76 00             	lea    0x0(%esi),%esi
  101f84:	89 ca                	mov    %ecx,%edx
  101f86:	ec                   	in     (%dx),%al
  101f87:	a8 20                	test   $0x20,%al
  101f89:	74 f9                	je     101f84 <_intr_read+0xb8>
  101f8b:	8a 45 97             	mov    -0x69(%ebp),%al
  101f8e:	89 fa                	mov    %edi,%edx
  101f90:	ee                   	out    %al,(%dx)
  101f91:	43                   	inc    %ebx
  101f92:	8d 45 a8             	lea    -0x58(%ebp),%eax
  101f95:	39 d8                	cmp    %ebx,%eax
  101f97:	75 e3                	jne    101f7c <_intr_read+0xb0>
  101f99:	e8 e6 f9 ff ff       	call   101984 <trace_unlock>
  101f9e:	89 f0                	mov    %esi,%eax
  101fa0:	83 c4 6c             	add    $0x6c,%esp
  101fa3:	5b                   	pop    %ebx
  101fa4:	5e                   	pop    %esi
  101fa5:	5f                   	pop    %edi
  101fa6:	5d                   	pop    %ebp
  101fa7:	c3                   	ret    
  101fa8:	31 d2                	xor    %edx,%edx
  101faa:	31 c0                	xor    %eax,%eax
  101fac:	89 54 05 d8          	mov    %edx,-0x28(%ebp,%eax,1)
  101fb0:	83 c0 04             	add    $0x4,%eax
  101fb3:	83 f8 10             	cmp    $0x10,%eax
  101fb6:	72 f4                	jb     101fac <_intr_read+0xe0>
  101fb8:	e8 63 e7 ff ff       	call   100720 <_cpu>
  101fbd:	66 89 45 a8          	mov    %ax,-0x58(%ebp)
  101fc1:	66 c7 45 aa 01 00    	movw   $0x1,-0x56(%ebp)
  101fc7:	c7 45 ac 00 00 00 00 	movl   $0x0,-0x54(%ebp)
  101fce:	c7 45 b0 74 0d 10 00 	movl   $0x100d74,-0x50(%ebp)
  101fd5:	31 c0                	xor    %eax,%eax
  101fd7:	8b 54 05 a8          	mov    -0x58(%ebp,%eax,1),%edx
  101fdb:	89 54 05 c0          	mov    %edx,-0x40(%ebp,%eax,1)
  101fdf:	83 c0 04             	add    $0x4,%eax
  101fe2:	83 f8 0c             	cmp    $0xc,%eax
  101fe5:	72 f0                	jb     101fd7 <_intr_read+0x10b>
  101fe7:	e8 54 f9 ff ff       	call   101940 <trace_lock>
  101fec:	8d 5d c0             	lea    -0x40(%ebp),%ebx
  101fef:	8d 7d cc             	lea    -0x34(%ebp),%edi
  101ff2:	b9 fd 02 00 00       	mov    $0x2fd,%ecx
  101ff7:	be f8 02 00 00       	mov    $0x2f8,%esi
  101ffc:	8a 03                	mov    (%ebx),%al
  101ffe:	88 45 97             	mov    %al,-0x69(%ebp)
  102001:	8d 76 00             	lea    0x0(%esi),%esi
  102004:	89 ca                	mov    %ecx,%edx
  102006:	ec                   	in     (%dx),%al
  102007:	a8 20                	test   $0x20,%al
  102009:	74 f9                	je     102004 <_intr_read+0x138>
  10200b:	8a 45 97             	mov    -0x69(%ebp),%al
  10200e:	89 f2                	mov    %esi,%edx
  102010:	ee                   	out    %al,(%dx)
  102011:	43                   	inc    %ebx
  102012:	39 fb                	cmp    %edi,%ebx
  102014:	75 e6                	jne    101ffc <_intr_read+0x130>
  102016:	8d 5d d9             	lea    -0x27(%ebp),%ebx
  102019:	8d 75 e8             	lea    -0x18(%ebp),%esi
  10201c:	c6 45 97 00          	movb   $0x0,-0x69(%ebp)
  102020:	b9 fd 02 00 00       	mov    $0x2fd,%ecx
  102025:	bf f8 02 00 00       	mov    $0x2f8,%edi
  10202a:	66 90                	xchg   %ax,%ax
  10202c:	89 ca                	mov    %ecx,%edx
  10202e:	ec                   	in     (%dx),%al
  10202f:	a8 20                	test   $0x20,%al
  102031:	74 f9                	je     10202c <_intr_read+0x160>
  102033:	8a 45 97             	mov    -0x69(%ebp),%al
  102036:	89 fa                	mov    %edi,%edx
  102038:	ee                   	out    %al,(%dx)
  102039:	39 de                	cmp    %ebx,%esi
  10203b:	74 0b                	je     102048 <_intr_read+0x17c>
  10203d:	8a 03                	mov    (%ebx),%al
  10203f:	88 45 97             	mov    %al,-0x69(%ebp)
  102042:	43                   	inc    %ebx
  102043:	eb e7                	jmp    10202c <_intr_read+0x160>
  102045:	8d 76 00             	lea    0x0(%esi),%esi
  102048:	e8 37 f9 ff ff       	call   101984 <trace_unlock>
  10204d:	e9 98 fe ff ff       	jmp    101eea <_intr_read+0x1e>
  102052:	66 90                	xchg   %ax,%ax

00102054 <_intr_write>:
  102054:	55                   	push   %ebp
  102055:	89 e5                	mov    %esp,%ebp
  102057:	57                   	push   %edi
  102058:	56                   	push   %esi
  102059:	53                   	push   %ebx
  10205a:	83 ec 6c             	sub    $0x6c,%esp
  10205d:	8b 75 08             	mov    0x8(%ebp),%esi
  102060:	a1 64 57 11 00       	mov    0x115764,%eax
  102065:	25 01 00 02 00       	and    $0x20001,%eax
  10206a:	3d 01 00 02 00       	cmp    $0x20001,%eax
  10206f:	0f 84 c3 00 00 00    	je     102138 <_intr_write+0xe4>
  102075:	83 ec 0c             	sub    $0xc,%esp
  102078:	56                   	push   %esi
  102079:	e8 7e ed ff ff       	call   100dfc <intr_write>
  10207e:	a1 64 57 11 00       	mov    0x115764,%eax
  102083:	25 02 00 02 00       	and    $0x20002,%eax
  102088:	83 c4 10             	add    $0x10,%esp
  10208b:	3d 02 00 02 00       	cmp    $0x20002,%eax
  102090:	74 0a                	je     10209c <_intr_write+0x48>
  102092:	8d 65 f4             	lea    -0xc(%ebp),%esp
  102095:	5b                   	pop    %ebx
  102096:	5e                   	pop    %esi
  102097:	5f                   	pop    %edi
  102098:	5d                   	pop    %ebp
  102099:	c3                   	ret    
  10209a:	66 90                	xchg   %ax,%ax
  10209c:	c7 45 a4 00 00 00 00 	movl   $0x0,-0x5c(%ebp)
  1020a3:	e8 78 e6 ff ff       	call   100720 <_cpu>
  1020a8:	66 89 45 b4          	mov    %ax,-0x4c(%ebp)
  1020ac:	66 c7 45 b6 02 00    	movw   $0x2,-0x4a(%ebp)
  1020b2:	c7 45 b8 00 00 00 00 	movl   $0x0,-0x48(%ebp)
  1020b9:	c7 45 bc fc 0d 10 00 	movl   $0x100dfc,-0x44(%ebp)
  1020c0:	31 c0                	xor    %eax,%eax
  1020c2:	8b 54 05 b4          	mov    -0x4c(%ebp,%eax,1),%edx
  1020c6:	89 54 05 cc          	mov    %edx,-0x34(%ebp,%eax,1)
  1020ca:	83 c0 04             	add    $0x4,%eax
  1020cd:	83 f8 0c             	cmp    $0xc,%eax
  1020d0:	72 f0                	jb     1020c2 <_intr_write+0x6e>
  1020d2:	e8 69 f8 ff ff       	call   101940 <trace_lock>
  1020d7:	8d 5d cc             	lea    -0x34(%ebp),%ebx
  1020da:	8d 7d d8             	lea    -0x28(%ebp),%edi
  1020dd:	b9 fd 02 00 00       	mov    $0x2fd,%ecx
  1020e2:	be f8 02 00 00       	mov    $0x2f8,%esi
  1020e7:	90                   	nop
  1020e8:	8a 03                	mov    (%ebx),%al
  1020ea:	88 45 97             	mov    %al,-0x69(%ebp)
  1020ed:	8d 76 00             	lea    0x0(%esi),%esi
  1020f0:	89 ca                	mov    %ecx,%edx
  1020f2:	ec                   	in     (%dx),%al
  1020f3:	a8 20                	test   $0x20,%al
  1020f5:	74 f9                	je     1020f0 <_intr_write+0x9c>
  1020f7:	8a 45 97             	mov    -0x69(%ebp),%al
  1020fa:	89 f2                	mov    %esi,%edx
  1020fc:	ee                   	out    %al,(%dx)
  1020fd:	43                   	inc    %ebx
  1020fe:	39 fb                	cmp    %edi,%ebx
  102100:	75 e6                	jne    1020e8 <_intr_write+0x94>
  102102:	8d 5d a4             	lea    -0x5c(%ebp),%ebx
  102105:	8d 75 a8             	lea    -0x58(%ebp),%esi
  102108:	c6 45 97 00          	movb   $0x0,-0x69(%ebp)
  10210c:	b9 fd 02 00 00       	mov    $0x2fd,%ecx
  102111:	bf f8 02 00 00       	mov    $0x2f8,%edi
  102116:	66 90                	xchg   %ax,%ax
  102118:	89 ca                	mov    %ecx,%edx
  10211a:	ec                   	in     (%dx),%al
  10211b:	a8 20                	test   $0x20,%al
  10211d:	74 f9                	je     102118 <_intr_write+0xc4>
  10211f:	8a 45 97             	mov    -0x69(%ebp),%al
  102122:	89 fa                	mov    %edi,%edx
  102124:	ee                   	out    %al,(%dx)
  102125:	43                   	inc    %ebx
  102126:	39 de                	cmp    %ebx,%esi
  102128:	0f 84 ba 00 00 00    	je     1021e8 <_intr_write+0x194>
  10212e:	8a 03                	mov    (%ebx),%al
  102130:	88 45 97             	mov    %al,-0x69(%ebp)
  102133:	eb e3                	jmp    102118 <_intr_write+0xc4>
  102135:	8d 76 00             	lea    0x0(%esi),%esi
  102138:	89 75 d8             	mov    %esi,-0x28(%ebp)
  10213b:	c7 45 dc 00 00 00 00 	movl   $0x0,-0x24(%ebp)
  102142:	c7 45 e0 00 00 00 00 	movl   $0x0,-0x20(%ebp)
  102149:	c7 45 e4 00 00 00 00 	movl   $0x0,-0x1c(%ebp)
  102150:	e8 cb e5 ff ff       	call   100720 <_cpu>
  102155:	66 89 45 a8          	mov    %ax,-0x58(%ebp)
  102159:	66 c7 45 aa 01 00    	movw   $0x1,-0x56(%ebp)
  10215f:	c7 45 ac 00 00 00 00 	movl   $0x0,-0x54(%ebp)
  102166:	c7 45 b0 fc 0d 10 00 	movl   $0x100dfc,-0x50(%ebp)
  10216d:	31 c0                	xor    %eax,%eax
  10216f:	8b 54 05 a8          	mov    -0x58(%ebp,%eax,1),%edx
  102173:	89 54 05 c0          	mov    %edx,-0x40(%ebp,%eax,1)
  102177:	83 c0 04             	add    $0x4,%eax
  10217a:	83 f8 0c             	cmp    $0xc,%eax
  10217d:	72 f0                	jb     10216f <_intr_write+0x11b>
  10217f:	e8 bc f7 ff ff       	call   101940 <trace_lock>
  102184:	8d 5d c0             	lea    -0x40(%ebp),%ebx
  102187:	b9 fd 02 00 00       	mov    $0x2fd,%ecx
  10218c:	bf f8 02 00 00       	mov    $0x2f8,%edi
  102191:	8d 76 00             	lea    0x0(%esi),%esi
  102194:	8a 03                	mov    (%ebx),%al
  102196:	88 45 97             	mov    %al,-0x69(%ebp)
  102199:	8d 76 00             	lea    0x0(%esi),%esi
  10219c:	89 ca                	mov    %ecx,%edx
  10219e:	ec                   	in     (%dx),%al
  10219f:	a8 20                	test   $0x20,%al
  1021a1:	74 f9                	je     10219c <_intr_write+0x148>
  1021a3:	8a 45 97             	mov    -0x69(%ebp),%al
  1021a6:	89 fa                	mov    %edi,%edx
  1021a8:	ee                   	out    %al,(%dx)
  1021a9:	43                   	inc    %ebx
  1021aa:	8d 45 cc             	lea    -0x34(%ebp),%eax
  1021ad:	39 c3                	cmp    %eax,%ebx
  1021af:	75 e3                	jne    102194 <_intr_write+0x140>
  1021b1:	8d 5d d8             	lea    -0x28(%ebp),%ebx
  1021b4:	b9 fd 02 00 00       	mov    $0x2fd,%ecx
  1021b9:	bf f8 02 00 00       	mov    $0x2f8,%edi
  1021be:	66 90                	xchg   %ax,%ax
  1021c0:	8a 03                	mov    (%ebx),%al
  1021c2:	88 45 97             	mov    %al,-0x69(%ebp)
  1021c5:	8d 76 00             	lea    0x0(%esi),%esi
  1021c8:	89 ca                	mov    %ecx,%edx
  1021ca:	ec                   	in     (%dx),%al
  1021cb:	a8 20                	test   $0x20,%al
  1021cd:	74 f9                	je     1021c8 <_intr_write+0x174>
  1021cf:	8a 45 97             	mov    -0x69(%ebp),%al
  1021d2:	89 fa                	mov    %edi,%edx
  1021d4:	ee                   	out    %al,(%dx)
  1021d5:	43                   	inc    %ebx
  1021d6:	8d 45 e8             	lea    -0x18(%ebp),%eax
  1021d9:	39 d8                	cmp    %ebx,%eax
  1021db:	75 e3                	jne    1021c0 <_intr_write+0x16c>
  1021dd:	e8 a2 f7 ff ff       	call   101984 <trace_unlock>
  1021e2:	e9 8e fe ff ff       	jmp    102075 <_intr_write+0x21>
  1021e7:	90                   	nop
  1021e8:	8d 65 f4             	lea    -0xc(%ebp),%esp
  1021eb:	5b                   	pop    %ebx
  1021ec:	5e                   	pop    %esi
  1021ed:	5f                   	pop    %edi
  1021ee:	5d                   	pop    %ebp
  1021ef:	e9 90 f7 ff ff       	jmp    101984 <trace_unlock>

001021f4 <__cb_irq>:
  1021f4:	55                   	push   %ebp
  1021f5:	89 e5                	mov    %esp,%ebp
  1021f7:	57                   	push   %edi
  1021f8:	56                   	push   %esi
  1021f9:	53                   	push   %ebx
  1021fa:	83 ec 6c             	sub    $0x6c,%esp
  1021fd:	a1 64 57 11 00       	mov    0x115764,%eax
  102202:	25 01 00 02 00       	and    $0x20001,%eax
  102207:	3d 01 00 02 00       	cmp    $0x20001,%eax
  10220c:	0f 84 e6 00 00 00    	je     1022f8 <__cb_irq+0x104>
  102212:	83 ec 0c             	sub    $0xc,%esp
  102215:	ff 75 18             	pushl  0x18(%ebp)
  102218:	83 ec 10             	sub    $0x10,%esp
  10221b:	89 e2                	mov    %esp,%edx
  10221d:	31 c0                	xor    %eax,%eax
  10221f:	8b 4c 05 08          	mov    0x8(%ebp,%eax,1),%ecx
  102223:	89 0c 02             	mov    %ecx,(%edx,%eax,1)
  102226:	83 c0 04             	add    $0x4,%eax
  102229:	83 f8 10             	cmp    $0x10,%eax
  10222c:	72 f1                	jb     10221f <__cb_irq+0x2b>
  10222e:	e8 e1 ec ff ff       	call   100f14 <_cb_irq>
  102233:	89 45 90             	mov    %eax,-0x70(%ebp)
  102236:	a1 64 57 11 00       	mov    0x115764,%eax
  10223b:	25 02 00 02 00       	and    $0x20002,%eax
  102240:	83 c4 20             	add    $0x20,%esp
  102243:	3d 02 00 02 00       	cmp    $0x20002,%eax
  102248:	74 0b                	je     102255 <__cb_irq+0x61>
  10224a:	8b 45 90             	mov    -0x70(%ebp),%eax
  10224d:	8d 65 f4             	lea    -0xc(%ebp),%esp
  102250:	5b                   	pop    %ebx
  102251:	5e                   	pop    %esi
  102252:	5f                   	pop    %edi
  102253:	5d                   	pop    %ebp
  102254:	c3                   	ret    
  102255:	8b 45 90             	mov    -0x70(%ebp),%eax
  102258:	89 45 a4             	mov    %eax,-0x5c(%ebp)
  10225b:	e8 c0 e4 ff ff       	call   100720 <_cpu>
  102260:	66 89 45 b4          	mov    %ax,-0x4c(%ebp)
  102264:	66 c7 45 b6 02 00    	movw   $0x2,-0x4a(%ebp)
  10226a:	c7 45 b8 00 00 00 00 	movl   $0x0,-0x48(%ebp)
  102271:	c7 45 bc 14 0f 10 00 	movl   $0x100f14,-0x44(%ebp)
  102278:	31 c0                	xor    %eax,%eax
  10227a:	8b 54 05 b4          	mov    -0x4c(%ebp,%eax,1),%edx
  10227e:	89 54 05 cc          	mov    %edx,-0x34(%ebp,%eax,1)
  102282:	83 c0 04             	add    $0x4,%eax
  102285:	83 f8 0c             	cmp    $0xc,%eax
  102288:	72 f0                	jb     10227a <__cb_irq+0x86>
  10228a:	e8 b1 f6 ff ff       	call   101940 <trace_lock>
  10228f:	8d 5d cc             	lea    -0x34(%ebp),%ebx
  102292:	8d 7d d8             	lea    -0x28(%ebp),%edi
  102295:	b9 fd 02 00 00       	mov    $0x2fd,%ecx
  10229a:	be f8 02 00 00       	mov    $0x2f8,%esi
  10229f:	90                   	nop
  1022a0:	8a 03                	mov    (%ebx),%al
  1022a2:	88 45 97             	mov    %al,-0x69(%ebp)
  1022a5:	8d 76 00             	lea    0x0(%esi),%esi
  1022a8:	89 ca                	mov    %ecx,%edx
  1022aa:	ec                   	in     (%dx),%al
  1022ab:	a8 20                	test   $0x20,%al
  1022ad:	74 f9                	je     1022a8 <__cb_irq+0xb4>
  1022af:	8a 45 97             	mov    -0x69(%ebp),%al
  1022b2:	89 f2                	mov    %esi,%edx
  1022b4:	ee                   	out    %al,(%dx)
  1022b5:	43                   	inc    %ebx
  1022b6:	39 fb                	cmp    %edi,%ebx
  1022b8:	75 e6                	jne    1022a0 <__cb_irq+0xac>
  1022ba:	8d 5d a4             	lea    -0x5c(%ebp),%ebx
  1022bd:	8d 75 a8             	lea    -0x58(%ebp),%esi
  1022c0:	b9 fd 02 00 00       	mov    $0x2fd,%ecx
  1022c5:	bf f8 02 00 00       	mov    $0x2f8,%edi
  1022ca:	66 90                	xchg   %ax,%ax
  1022cc:	8a 03                	mov    (%ebx),%al
  1022ce:	88 45 97             	mov    %al,-0x69(%ebp)
  1022d1:	8d 76 00             	lea    0x0(%esi),%esi
  1022d4:	89 ca                	mov    %ecx,%edx
  1022d6:	ec                   	in     (%dx),%al
  1022d7:	a8 20                	test   $0x20,%al
  1022d9:	74 f9                	je     1022d4 <__cb_irq+0xe0>
  1022db:	8a 45 97             	mov    -0x69(%ebp),%al
  1022de:	89 fa                	mov    %edi,%edx
  1022e0:	ee                   	out    %al,(%dx)
  1022e1:	43                   	inc    %ebx
  1022e2:	39 de                	cmp    %ebx,%esi
  1022e4:	75 e6                	jne    1022cc <__cb_irq+0xd8>
  1022e6:	e8 99 f6 ff ff       	call   101984 <trace_unlock>
  1022eb:	8b 45 90             	mov    -0x70(%ebp),%eax
  1022ee:	8d 65 f4             	lea    -0xc(%ebp),%esp
  1022f1:	5b                   	pop    %ebx
  1022f2:	5e                   	pop    %esi
  1022f3:	5f                   	pop    %edi
  1022f4:	5d                   	pop    %ebp
  1022f5:	c3                   	ret    
  1022f6:	66 90                	xchg   %ax,%ax
  1022f8:	8b 45 08             	mov    0x8(%ebp),%eax
  1022fb:	89 45 d8             	mov    %eax,-0x28(%ebp)
  1022fe:	8b 45 0c             	mov    0xc(%ebp),%eax
  102301:	89 45 dc             	mov    %eax,-0x24(%ebp)
  102304:	8b 45 10             	mov    0x10(%ebp),%eax
  102307:	89 45 e0             	mov    %eax,-0x20(%ebp)
  10230a:	8b 45 18             	mov    0x18(%ebp),%eax
  10230d:	89 45 e4             	mov    %eax,-0x1c(%ebp)
  102310:	e8 0b e4 ff ff       	call   100720 <_cpu>
  102315:	66 89 45 a8          	mov    %ax,-0x58(%ebp)
  102319:	66 c7 45 aa 01 00    	movw   $0x1,-0x56(%ebp)
  10231f:	c7 45 ac 00 00 00 00 	movl   $0x0,-0x54(%ebp)
  102326:	c7 45 b0 14 0f 10 00 	movl   $0x100f14,-0x50(%ebp)
  10232d:	31 c0                	xor    %eax,%eax
  10232f:	8b 54 05 a8          	mov    -0x58(%ebp,%eax,1),%edx
  102333:	89 54 05 c0          	mov    %edx,-0x40(%ebp,%eax,1)
  102337:	83 c0 04             	add    $0x4,%eax
  10233a:	83 f8 0c             	cmp    $0xc,%eax
  10233d:	72 f0                	jb     10232f <__cb_irq+0x13b>
  10233f:	e8 fc f5 ff ff       	call   101940 <trace_lock>
  102344:	8d 5d c0             	lea    -0x40(%ebp),%ebx
  102347:	8d 75 cc             	lea    -0x34(%ebp),%esi
  10234a:	b9 fd 02 00 00       	mov    $0x2fd,%ecx
  10234f:	bf f8 02 00 00       	mov    $0x2f8,%edi
  102354:	8a 03                	mov    (%ebx),%al
  102356:	88 45 97             	mov    %al,-0x69(%ebp)
  102359:	8d 76 00             	lea    0x0(%esi),%esi
  10235c:	89 ca                	mov    %ecx,%edx
  10235e:	ec                   	in     (%dx),%al
  10235f:	a8 20                	test   $0x20,%al
  102361:	74 f9                	je     10235c <__cb_irq+0x168>
  102363:	8a 45 97             	mov    -0x69(%ebp),%al
  102366:	89 fa                	mov    %edi,%edx
  102368:	ee                   	out    %al,(%dx)
  102369:	43                   	inc    %ebx
  10236a:	39 f3                	cmp    %esi,%ebx
  10236c:	75 e6                	jne    102354 <__cb_irq+0x160>
  10236e:	8d 5d d8             	lea    -0x28(%ebp),%ebx
  102371:	8d 75 e8             	lea    -0x18(%ebp),%esi
  102374:	b9 fd 02 00 00       	mov    $0x2fd,%ecx
  102379:	bf f8 02 00 00       	mov    $0x2f8,%edi
  10237e:	66 90                	xchg   %ax,%ax
  102380:	8a 03                	mov    (%ebx),%al
  102382:	88 45 97             	mov    %al,-0x69(%ebp)
  102385:	8d 76 00             	lea    0x0(%esi),%esi
  102388:	89 ca                	mov    %ecx,%edx
  10238a:	ec                   	in     (%dx),%al
  10238b:	a8 20                	test   $0x20,%al
  10238d:	74 f9                	je     102388 <__cb_irq+0x194>
  10238f:	8a 45 97             	mov    -0x69(%ebp),%al
  102392:	89 fa                	mov    %edi,%edx
  102394:	ee                   	out    %al,(%dx)
  102395:	43                   	inc    %ebx
  102396:	39 de                	cmp    %ebx,%esi
  102398:	75 e6                	jne    102380 <__cb_irq+0x18c>
  10239a:	e8 e5 f5 ff ff       	call   101984 <trace_unlock>
  10239f:	e9 6e fe ff ff       	jmp    102212 <__cb_irq+0x1e>

001023a4 <_vme_init>:
  1023a4:	55                   	push   %ebp
  1023a5:	89 e5                	mov    %esp,%ebp
  1023a7:	57                   	push   %edi
  1023a8:	56                   	push   %esi
  1023a9:	53                   	push   %ebx
  1023aa:	83 ec 6c             	sub    $0x6c,%esp
  1023ad:	a1 64 57 11 00       	mov    0x115764,%eax
  1023b2:	25 01 00 04 00       	and    $0x40001,%eax
  1023b7:	3d 01 00 04 00       	cmp    $0x40001,%eax
  1023bc:	0f 84 d6 00 00 00    	je     102498 <_vme_init+0xf4>
  1023c2:	83 ec 08             	sub    $0x8,%esp
  1023c5:	ff 75 0c             	pushl  0xc(%ebp)
  1023c8:	ff 75 08             	pushl  0x8(%ebp)
  1023cb:	e8 6c f1 ff ff       	call   10153c <vme_init>
  1023d0:	89 45 90             	mov    %eax,-0x70(%ebp)
  1023d3:	a1 64 57 11 00       	mov    0x115764,%eax
  1023d8:	25 02 00 04 00       	and    $0x40002,%eax
  1023dd:	83 c4 10             	add    $0x10,%esp
  1023e0:	3d 02 00 04 00       	cmp    $0x40002,%eax
  1023e5:	74 0d                	je     1023f4 <_vme_init+0x50>
  1023e7:	8b 45 90             	mov    -0x70(%ebp),%eax
  1023ea:	8d 65 f4             	lea    -0xc(%ebp),%esp
  1023ed:	5b                   	pop    %ebx
  1023ee:	5e                   	pop    %esi
  1023ef:	5f                   	pop    %edi
  1023f0:	5d                   	pop    %ebp
  1023f1:	c3                   	ret    
  1023f2:	66 90                	xchg   %ax,%ax
  1023f4:	8b 45 90             	mov    -0x70(%ebp),%eax
  1023f7:	89 45 a4             	mov    %eax,-0x5c(%ebp)
  1023fa:	e8 21 e3 ff ff       	call   100720 <_cpu>
  1023ff:	66 89 45 b4          	mov    %ax,-0x4c(%ebp)
  102403:	66 c7 45 b6 02 00    	movw   $0x2,-0x4a(%ebp)
  102409:	c7 45 b8 00 00 00 00 	movl   $0x0,-0x48(%ebp)
  102410:	c7 45 bc 3c 15 10 00 	movl   $0x10153c,-0x44(%ebp)
  102417:	31 c0                	xor    %eax,%eax
  102419:	8b 54 05 b4          	mov    -0x4c(%ebp,%eax,1),%edx
  10241d:	89 54 05 cc          	mov    %edx,-0x34(%ebp,%eax,1)
  102421:	83 c0 04             	add    $0x4,%eax
  102424:	83 f8 0c             	cmp    $0xc,%eax
  102427:	72 f0                	jb     102419 <_vme_init+0x75>
  102429:	e8 12 f5 ff ff       	call   101940 <trace_lock>
  10242e:	8d 5d cc             	lea    -0x34(%ebp),%ebx
  102431:	8d 7d d8             	lea    -0x28(%ebp),%edi
  102434:	b9 fd 02 00 00       	mov    $0x2fd,%ecx
  102439:	be f8 02 00 00       	mov    $0x2f8,%esi
  10243e:	66 90                	xchg   %ax,%ax
  102440:	8a 03                	mov    (%ebx),%al
  102442:	88 45 97             	mov    %al,-0x69(%ebp)
  102445:	8d 76 00             	lea    0x0(%esi),%esi
  102448:	89 ca                	mov    %ecx,%edx
  10244a:	ec                   	in     (%dx),%al
  10244b:	a8 20                	test   $0x20,%al
  10244d:	74 f9                	je     102448 <_vme_init+0xa4>
  10244f:	8a 45 97             	mov    -0x69(%ebp),%al
  102452:	89 f2                	mov    %esi,%edx
  102454:	ee                   	out    %al,(%dx)
  102455:	43                   	inc    %ebx
  102456:	39 fb                	cmp    %edi,%ebx
  102458:	75 e6                	jne    102440 <_vme_init+0x9c>
  10245a:	8d 5d a4             	lea    -0x5c(%ebp),%ebx
  10245d:	8d 75 a8             	lea    -0x58(%ebp),%esi
  102460:	b9 fd 02 00 00       	mov    $0x2fd,%ecx
  102465:	bf f8 02 00 00       	mov    $0x2f8,%edi
  10246a:	66 90                	xchg   %ax,%ax
  10246c:	8a 03                	mov    (%ebx),%al
  10246e:	88 45 97             	mov    %al,-0x69(%ebp)
  102471:	8d 76 00             	lea    0x0(%esi),%esi
  102474:	89 ca                	mov    %ecx,%edx
  102476:	ec                   	in     (%dx),%al
  102477:	a8 20                	test   $0x20,%al
  102479:	74 f9                	je     102474 <_vme_init+0xd0>
  10247b:	8a 45 97             	mov    -0x69(%ebp),%al
  10247e:	89 fa                	mov    %edi,%edx
  102480:	ee                   	out    %al,(%dx)
  102481:	43                   	inc    %ebx
  102482:	39 de                	cmp    %ebx,%esi
  102484:	75 e6                	jne    10246c <_vme_init+0xc8>
  102486:	e8 f9 f4 ff ff       	call   101984 <trace_unlock>
  10248b:	8b 45 90             	mov    -0x70(%ebp),%eax
  10248e:	8d 65 f4             	lea    -0xc(%ebp),%esp
  102491:	5b                   	pop    %ebx
  102492:	5e                   	pop    %esi
  102493:	5f                   	pop    %edi
  102494:	5d                   	pop    %ebp
  102495:	c3                   	ret    
  102496:	66 90                	xchg   %ax,%ax
  102498:	8b 45 08             	mov    0x8(%ebp),%eax
  10249b:	89 45 d8             	mov    %eax,-0x28(%ebp)
  10249e:	8b 45 0c             	mov    0xc(%ebp),%eax
  1024a1:	89 45 dc             	mov    %eax,-0x24(%ebp)
  1024a4:	c7 45 e0 00 00 00 00 	movl   $0x0,-0x20(%ebp)
  1024ab:	c7 45 e4 00 00 00 00 	movl   $0x0,-0x1c(%ebp)
  1024b2:	e8 69 e2 ff ff       	call   100720 <_cpu>
  1024b7:	66 89 45 a8          	mov    %ax,-0x58(%ebp)
  1024bb:	66 c7 45 aa 01 00    	movw   $0x1,-0x56(%ebp)
  1024c1:	c7 45 ac 00 00 00 00 	movl   $0x0,-0x54(%ebp)
  1024c8:	c7 45 b0 3c 15 10 00 	movl   $0x10153c,-0x50(%ebp)
  1024cf:	31 c0                	xor    %eax,%eax
  1024d1:	8b 54 05 a8          	mov    -0x58(%ebp,%eax,1),%edx
  1024d5:	89 54 05 c0          	mov    %edx,-0x40(%ebp,%eax,1)
  1024d9:	83 c0 04             	add    $0x4,%eax
  1024dc:	83 f8 0c             	cmp    $0xc,%eax
  1024df:	72 f0                	jb     1024d1 <_vme_init+0x12d>
  1024e1:	e8 5a f4 ff ff       	call   101940 <trace_lock>
  1024e6:	8d 5d c0             	lea    -0x40(%ebp),%ebx
  1024e9:	8d 75 cc             	lea    -0x34(%ebp),%esi
  1024ec:	b9 fd 02 00 00       	mov    $0x2fd,%ecx
  1024f1:	bf f8 02 00 00       	mov    $0x2f8,%edi
  1024f6:	66 90                	xchg   %ax,%ax
  1024f8:	8a 03                	mov    (%ebx),%al
  1024fa:	88 45 97             	mov    %al,-0x69(%ebp)
  1024fd:	8d 76 00             	lea    0x0(%esi),%esi
  102500:	89 ca                	mov    %ecx,%edx
  102502:	ec                   	in     (%dx),%al
  102503:	a8 20                	test   $0x20,%al
  102505:	74 f9                	je     102500 <_vme_init+0x15c>
  102507:	8a 45 97             	mov    -0x69(%ebp),%al
  10250a:	89 fa                	mov    %edi,%edx
  10250c:	ee                   	out    %al,(%dx)
  10250d:	43                   	inc    %ebx
  10250e:	39 f3                	cmp    %esi,%ebx
  102510:	75 e6                	jne    1024f8 <_vme_init+0x154>
  102512:	8d 5d d8             	lea    -0x28(%ebp),%ebx
  102515:	8d 75 e8             	lea    -0x18(%ebp),%esi
  102518:	b9 fd 02 00 00       	mov    $0x2fd,%ecx
  10251d:	bf f8 02 00 00       	mov    $0x2f8,%edi
  102522:	66 90                	xchg   %ax,%ax
  102524:	8a 03                	mov    (%ebx),%al
  102526:	88 45 97             	mov    %al,-0x69(%ebp)
  102529:	8d 76 00             	lea    0x0(%esi),%esi
  10252c:	89 ca                	mov    %ecx,%edx
  10252e:	ec                   	in     (%dx),%al
  10252f:	a8 20                	test   $0x20,%al
  102531:	74 f9                	je     10252c <_vme_init+0x188>
  102533:	8a 45 97             	mov    -0x69(%ebp),%al
  102536:	89 fa                	mov    %edi,%edx
  102538:	ee                   	out    %al,(%dx)
  102539:	43                   	inc    %ebx
  10253a:	39 de                	cmp    %ebx,%esi
  10253c:	75 e6                	jne    102524 <_vme_init+0x180>
  10253e:	e8 41 f4 ff ff       	call   101984 <trace_unlock>
  102543:	e9 7a fe ff ff       	jmp    1023c2 <_vme_init+0x1e>

00102548 <_protect>:
  102548:	55                   	push   %ebp
  102549:	89 e5                	mov    %esp,%ebp
  10254b:	57                   	push   %edi
  10254c:	56                   	push   %esi
  10254d:	53                   	push   %ebx
  10254e:	83 ec 6c             	sub    $0x6c,%esp
  102551:	a1 64 57 11 00       	mov    0x115764,%eax
  102556:	25 01 00 04 00       	and    $0x40001,%eax
  10255b:	3d 01 00 04 00       	cmp    $0x40001,%eax
  102560:	0f 84 d2 00 00 00    	je     102638 <_protect+0xf0>
  102566:	83 ec 0c             	sub    $0xc,%esp
  102569:	ff 75 08             	pushl  0x8(%ebp)
  10256c:	e8 2b f1 ff ff       	call   10169c <protect>
  102571:	89 45 90             	mov    %eax,-0x70(%ebp)
  102574:	a1 64 57 11 00       	mov    0x115764,%eax
  102579:	25 02 00 04 00       	and    $0x40002,%eax
  10257e:	83 c4 10             	add    $0x10,%esp
  102581:	3d 02 00 04 00       	cmp    $0x40002,%eax
  102586:	74 0c                	je     102594 <_protect+0x4c>
  102588:	8b 45 90             	mov    -0x70(%ebp),%eax
  10258b:	8d 65 f4             	lea    -0xc(%ebp),%esp
  10258e:	5b                   	pop    %ebx
  10258f:	5e                   	pop    %esi
  102590:	5f                   	pop    %edi
  102591:	5d                   	pop    %ebp
  102592:	c3                   	ret    
  102593:	90                   	nop
  102594:	8b 45 90             	mov    -0x70(%ebp),%eax
  102597:	89 45 a4             	mov    %eax,-0x5c(%ebp)
  10259a:	e8 81 e1 ff ff       	call   100720 <_cpu>
  10259f:	66 89 45 b4          	mov    %ax,-0x4c(%ebp)
  1025a3:	66 c7 45 b6 02 00    	movw   $0x2,-0x4a(%ebp)
  1025a9:	c7 45 b8 00 00 00 00 	movl   $0x0,-0x48(%ebp)
  1025b0:	c7 45 bc 9c 16 10 00 	movl   $0x10169c,-0x44(%ebp)
  1025b7:	31 c0                	xor    %eax,%eax
  1025b9:	8b 54 05 b4          	mov    -0x4c(%ebp,%eax,1),%edx
  1025bd:	89 54 05 cc          	mov    %edx,-0x34(%ebp,%eax,1)
  1025c1:	83 c0 04             	add    $0x4,%eax
  1025c4:	83 f8 0c             	cmp    $0xc,%eax
  1025c7:	72 f0                	jb     1025b9 <_protect+0x71>
  1025c9:	e8 72 f3 ff ff       	call   101940 <trace_lock>
  1025ce:	8d 5d cc             	lea    -0x34(%ebp),%ebx
  1025d1:	8d 7d d8             	lea    -0x28(%ebp),%edi
  1025d4:	b9 fd 02 00 00       	mov    $0x2fd,%ecx
  1025d9:	be f8 02 00 00       	mov    $0x2f8,%esi
  1025de:	66 90                	xchg   %ax,%ax
  1025e0:	8a 03                	mov    (%ebx),%al
  1025e2:	88 45 97             	mov    %al,-0x69(%ebp)
  1025e5:	8d 76 00             	lea    0x0(%esi),%esi
  1025e8:	89 ca                	mov    %ecx,%edx
  1025ea:	ec                   	in     (%dx),%al
  1025eb:	a8 20                	test   $0x20,%al
  1025ed:	74 f9                	je     1025e8 <_protect+0xa0>
  1025ef:	8a 45 97             	mov    -0x69(%ebp),%al
  1025f2:	89 f2                	mov    %esi,%edx
  1025f4:	ee                   	out    %al,(%dx)
  1025f5:	43                   	inc    %ebx
  1025f6:	39 fb                	cmp    %edi,%ebx
  1025f8:	75 e6                	jne    1025e0 <_protect+0x98>
  1025fa:	8d 5d a4             	lea    -0x5c(%ebp),%ebx
  1025fd:	8d 75 a8             	lea    -0x58(%ebp),%esi
  102600:	b9 fd 02 00 00       	mov    $0x2fd,%ecx
  102605:	bf f8 02 00 00       	mov    $0x2f8,%edi
  10260a:	66 90                	xchg   %ax,%ax
  10260c:	8a 03                	mov    (%ebx),%al
  10260e:	88 45 97             	mov    %al,-0x69(%ebp)
  102611:	8d 76 00             	lea    0x0(%esi),%esi
  102614:	89 ca                	mov    %ecx,%edx
  102616:	ec                   	in     (%dx),%al
  102617:	a8 20                	test   $0x20,%al
  102619:	74 f9                	je     102614 <_protect+0xcc>
  10261b:	8a 45 97             	mov    -0x69(%ebp),%al
  10261e:	89 fa                	mov    %edi,%edx
  102620:	ee                   	out    %al,(%dx)
  102621:	43                   	inc    %ebx
  102622:	39 de                	cmp    %ebx,%esi
  102624:	75 e6                	jne    10260c <_protect+0xc4>
  102626:	e8 59 f3 ff ff       	call   101984 <trace_unlock>
  10262b:	8b 45 90             	mov    -0x70(%ebp),%eax
  10262e:	8d 65 f4             	lea    -0xc(%ebp),%esp
  102631:	5b                   	pop    %ebx
  102632:	5e                   	pop    %esi
  102633:	5f                   	pop    %edi
  102634:	5d                   	pop    %ebp
  102635:	c3                   	ret    
  102636:	66 90                	xchg   %ax,%ax
  102638:	8b 45 08             	mov    0x8(%ebp),%eax
  10263b:	89 45 d8             	mov    %eax,-0x28(%ebp)
  10263e:	c7 45 dc 00 00 00 00 	movl   $0x0,-0x24(%ebp)
  102645:	c7 45 e0 00 00 00 00 	movl   $0x0,-0x20(%ebp)
  10264c:	c7 45 e4 00 00 00 00 	movl   $0x0,-0x1c(%ebp)
  102653:	e8 c8 e0 ff ff       	call   100720 <_cpu>
  102658:	66 89 45 a8          	mov    %ax,-0x58(%ebp)
  10265c:	66 c7 45 aa 01 00    	movw   $0x1,-0x56(%ebp)
  102662:	c7 45 ac 00 00 00 00 	movl   $0x0,-0x54(%ebp)
  102669:	c7 45 b0 9c 16 10 00 	movl   $0x10169c,-0x50(%ebp)
  102670:	31 c0                	xor    %eax,%eax
  102672:	8b 54 05 a8          	mov    -0x58(%ebp,%eax,1),%edx
  102676:	89 54 05 c0          	mov    %edx,-0x40(%ebp,%eax,1)
  10267a:	83 c0 04             	add    $0x4,%eax
  10267d:	83 f8 0c             	cmp    $0xc,%eax
  102680:	72 f0                	jb     102672 <_protect+0x12a>
  102682:	e8 b9 f2 ff ff       	call   101940 <trace_lock>
  102687:	8d 5d c0             	lea    -0x40(%ebp),%ebx
  10268a:	8d 75 cc             	lea    -0x34(%ebp),%esi
  10268d:	b9 fd 02 00 00       	mov    $0x2fd,%ecx
  102692:	bf f8 02 00 00       	mov    $0x2f8,%edi
  102697:	90                   	nop
  102698:	8a 03                	mov    (%ebx),%al
  10269a:	88 45 97             	mov    %al,-0x69(%ebp)
  10269d:	8d 76 00             	lea    0x0(%esi),%esi
  1026a0:	89 ca                	mov    %ecx,%edx
  1026a2:	ec                   	in     (%dx),%al
  1026a3:	a8 20                	test   $0x20,%al
  1026a5:	74 f9                	je     1026a0 <_protect+0x158>
  1026a7:	8a 45 97             	mov    -0x69(%ebp),%al
  1026aa:	89 fa                	mov    %edi,%edx
  1026ac:	ee                   	out    %al,(%dx)
  1026ad:	43                   	inc    %ebx
  1026ae:	39 f3                	cmp    %esi,%ebx
  1026b0:	75 e6                	jne    102698 <_protect+0x150>
  1026b2:	8d 5d d8             	lea    -0x28(%ebp),%ebx
  1026b5:	8d 75 e8             	lea    -0x18(%ebp),%esi
  1026b8:	b9 fd 02 00 00       	mov    $0x2fd,%ecx
  1026bd:	bf f8 02 00 00       	mov    $0x2f8,%edi
  1026c2:	66 90                	xchg   %ax,%ax
  1026c4:	8a 03                	mov    (%ebx),%al
  1026c6:	88 45 97             	mov    %al,-0x69(%ebp)
  1026c9:	8d 76 00             	lea    0x0(%esi),%esi
  1026cc:	89 ca                	mov    %ecx,%edx
  1026ce:	ec                   	in     (%dx),%al
  1026cf:	a8 20                	test   $0x20,%al
  1026d1:	74 f9                	je     1026cc <_protect+0x184>
  1026d3:	8a 45 97             	mov    -0x69(%ebp),%al
  1026d6:	89 fa                	mov    %edi,%edx
  1026d8:	ee                   	out    %al,(%dx)
  1026d9:	43                   	inc    %ebx
  1026da:	39 de                	cmp    %ebx,%esi
  1026dc:	75 e6                	jne    1026c4 <_protect+0x17c>
  1026de:	e8 a1 f2 ff ff       	call   101984 <trace_unlock>
  1026e3:	e9 7e fe ff ff       	jmp    102566 <_protect+0x1e>

001026e8 <_unprotect>:
  1026e8:	55                   	push   %ebp
  1026e9:	89 e5                	mov    %esp,%ebp
  1026eb:	57                   	push   %edi
  1026ec:	56                   	push   %esi
  1026ed:	53                   	push   %ebx
  1026ee:	83 ec 6c             	sub    $0x6c,%esp
  1026f1:	8b 75 08             	mov    0x8(%ebp),%esi
  1026f4:	a1 64 57 11 00       	mov    0x115764,%eax
  1026f9:	25 01 00 04 00       	and    $0x40001,%eax
  1026fe:	3d 01 00 04 00       	cmp    $0x40001,%eax
  102703:	0f 84 c3 00 00 00    	je     1027cc <_unprotect+0xe4>
  102709:	83 ec 0c             	sub    $0xc,%esp
  10270c:	56                   	push   %esi
  10270d:	e8 d2 ef ff ff       	call   1016e4 <unprotect>
  102712:	a1 64 57 11 00       	mov    0x115764,%eax
  102717:	25 02 00 04 00       	and    $0x40002,%eax
  10271c:	83 c4 10             	add    $0x10,%esp
  10271f:	3d 02 00 04 00       	cmp    $0x40002,%eax
  102724:	74 0a                	je     102730 <_unprotect+0x48>
  102726:	8d 65 f4             	lea    -0xc(%ebp),%esp
  102729:	5b                   	pop    %ebx
  10272a:	5e                   	pop    %esi
  10272b:	5f                   	pop    %edi
  10272c:	5d                   	pop    %ebp
  10272d:	c3                   	ret    
  10272e:	66 90                	xchg   %ax,%ax
  102730:	c7 45 a4 00 00 00 00 	movl   $0x0,-0x5c(%ebp)
  102737:	e8 e4 df ff ff       	call   100720 <_cpu>
  10273c:	66 89 45 b4          	mov    %ax,-0x4c(%ebp)
  102740:	66 c7 45 b6 02 00    	movw   $0x2,-0x4a(%ebp)
  102746:	c7 45 b8 00 00 00 00 	movl   $0x0,-0x48(%ebp)
  10274d:	c7 45 bc e4 16 10 00 	movl   $0x1016e4,-0x44(%ebp)
  102754:	31 c0                	xor    %eax,%eax
  102756:	8b 54 05 b4          	mov    -0x4c(%ebp,%eax,1),%edx
  10275a:	89 54 05 cc          	mov    %edx,-0x34(%ebp,%eax,1)
  10275e:	83 c0 04             	add    $0x4,%eax
  102761:	83 f8 0c             	cmp    $0xc,%eax
  102764:	72 f0                	jb     102756 <_unprotect+0x6e>
  102766:	e8 d5 f1 ff ff       	call   101940 <trace_lock>
  10276b:	8d 5d cc             	lea    -0x34(%ebp),%ebx
  10276e:	8d 7d d8             	lea    -0x28(%ebp),%edi
  102771:	b9 fd 02 00 00       	mov    $0x2fd,%ecx
  102776:	be f8 02 00 00       	mov    $0x2f8,%esi
  10277b:	90                   	nop
  10277c:	8a 03                	mov    (%ebx),%al
  10277e:	88 45 97             	mov    %al,-0x69(%ebp)
  102781:	8d 76 00             	lea    0x0(%esi),%esi
  102784:	89 ca                	mov    %ecx,%edx
  102786:	ec                   	in     (%dx),%al
  102787:	a8 20                	test   $0x20,%al
  102789:	74 f9                	je     102784 <_unprotect+0x9c>
  10278b:	8a 45 97             	mov    -0x69(%ebp),%al
  10278e:	89 f2                	mov    %esi,%edx
  102790:	ee                   	out    %al,(%dx)
  102791:	43                   	inc    %ebx
  102792:	39 fb                	cmp    %edi,%ebx
  102794:	75 e6                	jne    10277c <_unprotect+0x94>
  102796:	8d 5d a4             	lea    -0x5c(%ebp),%ebx
  102799:	8d 75 a8             	lea    -0x58(%ebp),%esi
  10279c:	c6 45 97 00          	movb   $0x0,-0x69(%ebp)
  1027a0:	b9 fd 02 00 00       	mov    $0x2fd,%ecx
  1027a5:	bf f8 02 00 00       	mov    $0x2f8,%edi
  1027aa:	66 90                	xchg   %ax,%ax
  1027ac:	89 ca                	mov    %ecx,%edx
  1027ae:	ec                   	in     (%dx),%al
  1027af:	a8 20                	test   $0x20,%al
  1027b1:	74 f9                	je     1027ac <_unprotect+0xc4>
  1027b3:	8a 45 97             	mov    -0x69(%ebp),%al
  1027b6:	89 fa                	mov    %edi,%edx
  1027b8:	ee                   	out    %al,(%dx)
  1027b9:	43                   	inc    %ebx
  1027ba:	39 de                	cmp    %ebx,%esi
  1027bc:	0f 84 ba 00 00 00    	je     10287c <_unprotect+0x194>
  1027c2:	8a 03                	mov    (%ebx),%al
  1027c4:	88 45 97             	mov    %al,-0x69(%ebp)
  1027c7:	eb e3                	jmp    1027ac <_unprotect+0xc4>
  1027c9:	8d 76 00             	lea    0x0(%esi),%esi
  1027cc:	89 75 d8             	mov    %esi,-0x28(%ebp)
  1027cf:	c7 45 dc 00 00 00 00 	movl   $0x0,-0x24(%ebp)
  1027d6:	c7 45 e0 00 00 00 00 	movl   $0x0,-0x20(%ebp)
  1027dd:	c7 45 e4 00 00 00 00 	movl   $0x0,-0x1c(%ebp)
  1027e4:	e8 37 df ff ff       	call   100720 <_cpu>
  1027e9:	66 89 45 a8          	mov    %ax,-0x58(%ebp)
  1027ed:	66 c7 45 aa 01 00    	movw   $0x1,-0x56(%ebp)
  1027f3:	c7 45 ac 00 00 00 00 	movl   $0x0,-0x54(%ebp)
  1027fa:	c7 45 b0 e4 16 10 00 	movl   $0x1016e4,-0x50(%ebp)
  102801:	31 c0                	xor    %eax,%eax
  102803:	8b 54 05 a8          	mov    -0x58(%ebp,%eax,1),%edx
  102807:	89 54 05 c0          	mov    %edx,-0x40(%ebp,%eax,1)
  10280b:	83 c0 04             	add    $0x4,%eax
  10280e:	83 f8 0c             	cmp    $0xc,%eax
  102811:	72 f0                	jb     102803 <_unprotect+0x11b>
  102813:	e8 28 f1 ff ff       	call   101940 <trace_lock>
  102818:	8d 5d c0             	lea    -0x40(%ebp),%ebx
  10281b:	b9 fd 02 00 00       	mov    $0x2fd,%ecx
  102820:	bf f8 02 00 00       	mov    $0x2f8,%edi
  102825:	8d 76 00             	lea    0x0(%esi),%esi
  102828:	8a 03                	mov    (%ebx),%al
  10282a:	88 45 97             	mov    %al,-0x69(%ebp)
  10282d:	8d 76 00             	lea    0x0(%esi),%esi
  102830:	89 ca                	mov    %ecx,%edx
  102832:	ec                   	in     (%dx),%al
  102833:	a8 20                	test   $0x20,%al
  102835:	74 f9                	je     102830 <_unprotect+0x148>
  102837:	8a 45 97             	mov    -0x69(%ebp),%al
  10283a:	89 fa                	mov    %edi,%edx
  10283c:	ee                   	out    %al,(%dx)
  10283d:	43                   	inc    %ebx
  10283e:	8d 45 cc             	lea    -0x34(%ebp),%eax
  102841:	39 c3                	cmp    %eax,%ebx
  102843:	75 e3                	jne    102828 <_unprotect+0x140>
  102845:	8d 5d d8             	lea    -0x28(%ebp),%ebx
  102848:	b9 fd 02 00 00       	mov    $0x2fd,%ecx
  10284d:	bf f8 02 00 00       	mov    $0x2f8,%edi
  102852:	66 90                	xchg   %ax,%ax
  102854:	8a 03                	mov    (%ebx),%al
  102856:	88 45 97             	mov    %al,-0x69(%ebp)
  102859:	8d 76 00             	lea    0x0(%esi),%esi
  10285c:	89 ca                	mov    %ecx,%edx
  10285e:	ec                   	in     (%dx),%al
  10285f:	a8 20                	test   $0x20,%al
  102861:	74 f9                	je     10285c <_unprotect+0x174>
  102863:	8a 45 97             	mov    -0x69(%ebp),%al
  102866:	89 fa                	mov    %edi,%edx
  102868:	ee                   	out    %al,(%dx)
  102869:	43                   	inc    %ebx
  10286a:	8d 45 e8             	lea    -0x18(%ebp),%eax
  10286d:	39 d8                	cmp    %ebx,%eax
  10286f:	75 e3                	jne    102854 <_unprotect+0x16c>
  102871:	e8 0e f1 ff ff       	call   101984 <trace_unlock>
  102876:	e9 8e fe ff ff       	jmp    102709 <_unprotect+0x21>
  10287b:	90                   	nop
  10287c:	8d 65 f4             	lea    -0xc(%ebp),%esp
  10287f:	5b                   	pop    %ebx
  102880:	5e                   	pop    %esi
  102881:	5f                   	pop    %edi
  102882:	5d                   	pop    %ebp
  102883:	e9 fc f0 ff ff       	jmp    101984 <trace_unlock>

00102888 <_map>:
  102888:	55                   	push   %ebp
  102889:	89 e5                	mov    %esp,%ebp
  10288b:	57                   	push   %edi
  10288c:	56                   	push   %esi
  10288d:	53                   	push   %ebx
  10288e:	83 ec 6c             	sub    $0x6c,%esp
  102891:	a1 64 57 11 00       	mov    0x115764,%eax
  102896:	25 01 00 04 00       	and    $0x40001,%eax
  10289b:	3d 01 00 04 00       	cmp    $0x40001,%eax
  1028a0:	0f 84 da 00 00 00    	je     102980 <_map+0xf8>
  1028a6:	ff 75 14             	pushl  0x14(%ebp)
  1028a9:	ff 75 10             	pushl  0x10(%ebp)
  1028ac:	ff 75 0c             	pushl  0xc(%ebp)
  1028af:	ff 75 08             	pushl  0x8(%ebp)
  1028b2:	e8 89 ee ff ff       	call   101740 <map>
  1028b7:	89 45 90             	mov    %eax,-0x70(%ebp)
  1028ba:	a1 64 57 11 00       	mov    0x115764,%eax
  1028bf:	25 02 00 04 00       	and    $0x40002,%eax
  1028c4:	83 c4 10             	add    $0x10,%esp
  1028c7:	3d 02 00 04 00       	cmp    $0x40002,%eax
  1028cc:	74 0e                	je     1028dc <_map+0x54>
  1028ce:	8b 45 90             	mov    -0x70(%ebp),%eax
  1028d1:	8d 65 f4             	lea    -0xc(%ebp),%esp
  1028d4:	5b                   	pop    %ebx
  1028d5:	5e                   	pop    %esi
  1028d6:	5f                   	pop    %edi
  1028d7:	5d                   	pop    %ebp
  1028d8:	c3                   	ret    
  1028d9:	8d 76 00             	lea    0x0(%esi),%esi
  1028dc:	8b 45 90             	mov    -0x70(%ebp),%eax
  1028df:	89 45 a4             	mov    %eax,-0x5c(%ebp)
  1028e2:	e8 39 de ff ff       	call   100720 <_cpu>
  1028e7:	66 89 45 b4          	mov    %ax,-0x4c(%ebp)
  1028eb:	66 c7 45 b6 02 00    	movw   $0x2,-0x4a(%ebp)
  1028f1:	c7 45 b8 00 00 00 00 	movl   $0x0,-0x48(%ebp)
  1028f8:	c7 45 bc 40 17 10 00 	movl   $0x101740,-0x44(%ebp)
  1028ff:	31 c0                	xor    %eax,%eax
  102901:	8b 54 05 b4          	mov    -0x4c(%ebp,%eax,1),%edx
  102905:	89 54 05 cc          	mov    %edx,-0x34(%ebp,%eax,1)
  102909:	83 c0 04             	add    $0x4,%eax
  10290c:	83 f8 0c             	cmp    $0xc,%eax
  10290f:	72 f0                	jb     102901 <_map+0x79>
  102911:	e8 2a f0 ff ff       	call   101940 <trace_lock>
  102916:	8d 5d cc             	lea    -0x34(%ebp),%ebx
  102919:	8d 7d d8             	lea    -0x28(%ebp),%edi
  10291c:	b9 fd 02 00 00       	mov    $0x2fd,%ecx
  102921:	be f8 02 00 00       	mov    $0x2f8,%esi
  102926:	66 90                	xchg   %ax,%ax
  102928:	8a 03                	mov    (%ebx),%al
  10292a:	88 45 97             	mov    %al,-0x69(%ebp)
  10292d:	8d 76 00             	lea    0x0(%esi),%esi
  102930:	89 ca                	mov    %ecx,%edx
  102932:	ec                   	in     (%dx),%al
  102933:	a8 20                	test   $0x20,%al
  102935:	74 f9                	je     102930 <_map+0xa8>
  102937:	8a 45 97             	mov    -0x69(%ebp),%al
  10293a:	89 f2                	mov    %esi,%edx
  10293c:	ee                   	out    %al,(%dx)
  10293d:	43                   	inc    %ebx
  10293e:	39 fb                	cmp    %edi,%ebx
  102940:	75 e6                	jne    102928 <_map+0xa0>
  102942:	8d 5d a4             	lea    -0x5c(%ebp),%ebx
  102945:	8d 75 a8             	lea    -0x58(%ebp),%esi
  102948:	b9 fd 02 00 00       	mov    $0x2fd,%ecx
  10294d:	bf f8 02 00 00       	mov    $0x2f8,%edi
  102952:	66 90                	xchg   %ax,%ax
  102954:	8a 03                	mov    (%ebx),%al
  102956:	88 45 97             	mov    %al,-0x69(%ebp)
  102959:	8d 76 00             	lea    0x0(%esi),%esi
  10295c:	89 ca                	mov    %ecx,%edx
  10295e:	ec                   	in     (%dx),%al
  10295f:	a8 20                	test   $0x20,%al
  102961:	74 f9                	je     10295c <_map+0xd4>
  102963:	8a 45 97             	mov    -0x69(%ebp),%al
  102966:	89 fa                	mov    %edi,%edx
  102968:	ee                   	out    %al,(%dx)
  102969:	43                   	inc    %ebx
  10296a:	39 de                	cmp    %ebx,%esi
  10296c:	75 e6                	jne    102954 <_map+0xcc>
  10296e:	e8 11 f0 ff ff       	call   101984 <trace_unlock>
  102973:	8b 45 90             	mov    -0x70(%ebp),%eax
  102976:	8d 65 f4             	lea    -0xc(%ebp),%esp
  102979:	5b                   	pop    %ebx
  10297a:	5e                   	pop    %esi
  10297b:	5f                   	pop    %edi
  10297c:	5d                   	pop    %ebp
  10297d:	c3                   	ret    
  10297e:	66 90                	xchg   %ax,%ax
  102980:	8b 45 08             	mov    0x8(%ebp),%eax
  102983:	89 45 d8             	mov    %eax,-0x28(%ebp)
  102986:	8b 45 0c             	mov    0xc(%ebp),%eax
  102989:	89 45 dc             	mov    %eax,-0x24(%ebp)
  10298c:	8b 45 10             	mov    0x10(%ebp),%eax
  10298f:	89 45 e0             	mov    %eax,-0x20(%ebp)
  102992:	8b 45 14             	mov    0x14(%ebp),%eax
  102995:	89 45 e4             	mov    %eax,-0x1c(%ebp)
  102998:	e8 83 dd ff ff       	call   100720 <_cpu>
  10299d:	66 89 45 a8          	mov    %ax,-0x58(%ebp)
  1029a1:	66 c7 45 aa 01 00    	movw   $0x1,-0x56(%ebp)
  1029a7:	c7 45 ac 00 00 00 00 	movl   $0x0,-0x54(%ebp)
  1029ae:	c7 45 b0 40 17 10 00 	movl   $0x101740,-0x50(%ebp)
  1029b5:	31 c0                	xor    %eax,%eax
  1029b7:	8b 54 05 a8          	mov    -0x58(%ebp,%eax,1),%edx
  1029bb:	89 54 05 c0          	mov    %edx,-0x40(%ebp,%eax,1)
  1029bf:	83 c0 04             	add    $0x4,%eax
  1029c2:	83 f8 0c             	cmp    $0xc,%eax
  1029c5:	72 f0                	jb     1029b7 <_map+0x12f>
  1029c7:	e8 74 ef ff ff       	call   101940 <trace_lock>
  1029cc:	8d 5d c0             	lea    -0x40(%ebp),%ebx
  1029cf:	8d 75 cc             	lea    -0x34(%ebp),%esi
  1029d2:	b9 fd 02 00 00       	mov    $0x2fd,%ecx
  1029d7:	bf f8 02 00 00       	mov    $0x2f8,%edi
  1029dc:	8a 03                	mov    (%ebx),%al
  1029de:	88 45 97             	mov    %al,-0x69(%ebp)
  1029e1:	8d 76 00             	lea    0x0(%esi),%esi
  1029e4:	89 ca                	mov    %ecx,%edx
  1029e6:	ec                   	in     (%dx),%al
  1029e7:	a8 20                	test   $0x20,%al
  1029e9:	74 f9                	je     1029e4 <_map+0x15c>
  1029eb:	8a 45 97             	mov    -0x69(%ebp),%al
  1029ee:	89 fa                	mov    %edi,%edx
  1029f0:	ee                   	out    %al,(%dx)
  1029f1:	43                   	inc    %ebx
  1029f2:	39 f3                	cmp    %esi,%ebx
  1029f4:	75 e6                	jne    1029dc <_map+0x154>
  1029f6:	8d 5d d8             	lea    -0x28(%ebp),%ebx
  1029f9:	8d 75 e8             	lea    -0x18(%ebp),%esi
  1029fc:	b9 fd 02 00 00       	mov    $0x2fd,%ecx
  102a01:	bf f8 02 00 00       	mov    $0x2f8,%edi
  102a06:	66 90                	xchg   %ax,%ax
  102a08:	8a 03                	mov    (%ebx),%al
  102a0a:	88 45 97             	mov    %al,-0x69(%ebp)
  102a0d:	8d 76 00             	lea    0x0(%esi),%esi
  102a10:	89 ca                	mov    %ecx,%edx
  102a12:	ec                   	in     (%dx),%al
  102a13:	a8 20                	test   $0x20,%al
  102a15:	74 f9                	je     102a10 <_map+0x188>
  102a17:	8a 45 97             	mov    -0x69(%ebp),%al
  102a1a:	89 fa                	mov    %edi,%edx
  102a1c:	ee                   	out    %al,(%dx)
  102a1d:	43                   	inc    %ebx
  102a1e:	39 de                	cmp    %ebx,%esi
  102a20:	75 e6                	jne    102a08 <_map+0x180>
  102a22:	e8 5d ef ff ff       	call   101984 <trace_unlock>
  102a27:	e9 7a fe ff ff       	jmp    1028a6 <_map+0x1e>

00102a2c <_ucontext>:
  102a2c:	55                   	push   %ebp
  102a2d:	89 e5                	mov    %esp,%ebp
  102a2f:	57                   	push   %edi
  102a30:	56                   	push   %esi
  102a31:	53                   	push   %ebx
  102a32:	83 ec 6c             	sub    $0x6c,%esp
  102a35:	a1 64 57 11 00       	mov    0x115764,%eax
  102a3a:	25 01 00 04 00       	and    $0x40001,%eax
  102a3f:	3d 01 00 04 00       	cmp    $0x40001,%eax
  102a44:	0f 84 e2 00 00 00    	je     102b2c <_ucontext+0x100>
  102a4a:	50                   	push   %eax
  102a4b:	ff 75 20             	pushl  0x20(%ebp)
  102a4e:	ff 75 1c             	pushl  0x1c(%ebp)
  102a51:	ff 75 18             	pushl  0x18(%ebp)
  102a54:	ff 75 14             	pushl  0x14(%ebp)
  102a57:	ff 75 10             	pushl  0x10(%ebp)
  102a5a:	ff 75 0c             	pushl  0xc(%ebp)
  102a5d:	ff 75 08             	pushl  0x8(%ebp)
  102a60:	e8 57 ee ff ff       	call   1018bc <ucontext>
  102a65:	89 45 90             	mov    %eax,-0x70(%ebp)
  102a68:	a1 64 57 11 00       	mov    0x115764,%eax
  102a6d:	25 02 00 04 00       	and    $0x40002,%eax
  102a72:	83 c4 20             	add    $0x20,%esp
  102a75:	3d 02 00 04 00       	cmp    $0x40002,%eax
  102a7a:	74 0c                	je     102a88 <_ucontext+0x5c>
  102a7c:	8b 45 90             	mov    -0x70(%ebp),%eax
  102a7f:	8d 65 f4             	lea    -0xc(%ebp),%esp
  102a82:	5b                   	pop    %ebx
  102a83:	5e                   	pop    %esi
  102a84:	5f                   	pop    %edi
  102a85:	5d                   	pop    %ebp
  102a86:	c3                   	ret    
  102a87:	90                   	nop
  102a88:	8b 45 90             	mov    -0x70(%ebp),%eax
  102a8b:	89 45 a4             	mov    %eax,-0x5c(%ebp)
  102a8e:	e8 8d dc ff ff       	call   100720 <_cpu>
  102a93:	66 89 45 b4          	mov    %ax,-0x4c(%ebp)
  102a97:	66 c7 45 b6 02 00    	movw   $0x2,-0x4a(%ebp)
  102a9d:	c7 45 b8 00 00 00 00 	movl   $0x0,-0x48(%ebp)
  102aa4:	c7 45 bc bc 18 10 00 	movl   $0x1018bc,-0x44(%ebp)
  102aab:	31 c0                	xor    %eax,%eax
  102aad:	8b 54 05 b4          	mov    -0x4c(%ebp,%eax,1),%edx
  102ab1:	89 54 05 cc          	mov    %edx,-0x34(%ebp,%eax,1)
  102ab5:	83 c0 04             	add    $0x4,%eax
  102ab8:	83 f8 0c             	cmp    $0xc,%eax
  102abb:	72 f0                	jb     102aad <_ucontext+0x81>
  102abd:	e8 7e ee ff ff       	call   101940 <trace_lock>
  102ac2:	8d 5d cc             	lea    -0x34(%ebp),%ebx
  102ac5:	8d 7d d8             	lea    -0x28(%ebp),%edi
  102ac8:	b9 fd 02 00 00       	mov    $0x2fd,%ecx
  102acd:	be f8 02 00 00       	mov    $0x2f8,%esi
  102ad2:	66 90                	xchg   %ax,%ax
  102ad4:	8a 03                	mov    (%ebx),%al
  102ad6:	88 45 97             	mov    %al,-0x69(%ebp)
  102ad9:	8d 76 00             	lea    0x0(%esi),%esi
  102adc:	89 ca                	mov    %ecx,%edx
  102ade:	ec                   	in     (%dx),%al
  102adf:	a8 20                	test   $0x20,%al
  102ae1:	74 f9                	je     102adc <_ucontext+0xb0>
  102ae3:	8a 45 97             	mov    -0x69(%ebp),%al
  102ae6:	89 f2                	mov    %esi,%edx
  102ae8:	ee                   	out    %al,(%dx)
  102ae9:	43                   	inc    %ebx
  102aea:	39 fb                	cmp    %edi,%ebx
  102aec:	75 e6                	jne    102ad4 <_ucontext+0xa8>
  102aee:	8d 5d a4             	lea    -0x5c(%ebp),%ebx
  102af1:	8d 75 a8             	lea    -0x58(%ebp),%esi
  102af4:	b9 fd 02 00 00       	mov    $0x2fd,%ecx
  102af9:	bf f8 02 00 00       	mov    $0x2f8,%edi
  102afe:	66 90                	xchg   %ax,%ax
  102b00:	8a 03                	mov    (%ebx),%al
  102b02:	88 45 97             	mov    %al,-0x69(%ebp)
  102b05:	8d 76 00             	lea    0x0(%esi),%esi
  102b08:	89 ca                	mov    %ecx,%edx
  102b0a:	ec                   	in     (%dx),%al
  102b0b:	a8 20                	test   $0x20,%al
  102b0d:	74 f9                	je     102b08 <_ucontext+0xdc>
  102b0f:	8a 45 97             	mov    -0x69(%ebp),%al
  102b12:	89 fa                	mov    %edi,%edx
  102b14:	ee                   	out    %al,(%dx)
  102b15:	43                   	inc    %ebx
  102b16:	39 de                	cmp    %ebx,%esi
  102b18:	75 e6                	jne    102b00 <_ucontext+0xd4>
  102b1a:	e8 65 ee ff ff       	call   101984 <trace_unlock>
  102b1f:	8b 45 90             	mov    -0x70(%ebp),%eax
  102b22:	8d 65 f4             	lea    -0xc(%ebp),%esp
  102b25:	5b                   	pop    %ebx
  102b26:	5e                   	pop    %esi
  102b27:	5f                   	pop    %edi
  102b28:	5d                   	pop    %ebp
  102b29:	c3                   	ret    
  102b2a:	66 90                	xchg   %ax,%ax
  102b2c:	8b 45 08             	mov    0x8(%ebp),%eax
  102b2f:	89 45 d8             	mov    %eax,-0x28(%ebp)
  102b32:	8b 45 1c             	mov    0x1c(%ebp),%eax
  102b35:	89 45 dc             	mov    %eax,-0x24(%ebp)
  102b38:	8b 45 20             	mov    0x20(%ebp),%eax
  102b3b:	89 45 e0             	mov    %eax,-0x20(%ebp)
  102b3e:	c7 45 e4 00 00 00 00 	movl   $0x0,-0x1c(%ebp)
  102b45:	e8 d6 db ff ff       	call   100720 <_cpu>
  102b4a:	66 89 45 a8          	mov    %ax,-0x58(%ebp)
  102b4e:	66 c7 45 aa 01 00    	movw   $0x1,-0x56(%ebp)
  102b54:	c7 45 ac 00 00 00 00 	movl   $0x0,-0x54(%ebp)
  102b5b:	c7 45 b0 bc 18 10 00 	movl   $0x1018bc,-0x50(%ebp)
  102b62:	31 c0                	xor    %eax,%eax
  102b64:	8b 54 05 a8          	mov    -0x58(%ebp,%eax,1),%edx
  102b68:	89 54 05 c0          	mov    %edx,-0x40(%ebp,%eax,1)
  102b6c:	83 c0 04             	add    $0x4,%eax
  102b6f:	83 f8 0c             	cmp    $0xc,%eax
  102b72:	72 f0                	jb     102b64 <_ucontext+0x138>
  102b74:	e8 c7 ed ff ff       	call   101940 <trace_lock>
  102b79:	8d 5d c0             	lea    -0x40(%ebp),%ebx
  102b7c:	8d 75 cc             	lea    -0x34(%ebp),%esi
  102b7f:	b9 fd 02 00 00       	mov    $0x2fd,%ecx
  102b84:	bf f8 02 00 00       	mov    $0x2f8,%edi
  102b89:	8d 76 00             	lea    0x0(%esi),%esi
  102b8c:	8a 03                	mov    (%ebx),%al
  102b8e:	88 45 97             	mov    %al,-0x69(%ebp)
  102b91:	8d 76 00             	lea    0x0(%esi),%esi
  102b94:	89 ca                	mov    %ecx,%edx
  102b96:	ec                   	in     (%dx),%al
  102b97:	a8 20                	test   $0x20,%al
  102b99:	74 f9                	je     102b94 <_ucontext+0x168>
  102b9b:	8a 45 97             	mov    -0x69(%ebp),%al
  102b9e:	89 fa                	mov    %edi,%edx
  102ba0:	ee                   	out    %al,(%dx)
  102ba1:	43                   	inc    %ebx
  102ba2:	39 f3                	cmp    %esi,%ebx
  102ba4:	75 e6                	jne    102b8c <_ucontext+0x160>
  102ba6:	8d 5d d8             	lea    -0x28(%ebp),%ebx
  102ba9:	8d 75 e8             	lea    -0x18(%ebp),%esi
  102bac:	b9 fd 02 00 00       	mov    $0x2fd,%ecx
  102bb1:	bf f8 02 00 00       	mov    $0x2f8,%edi
  102bb6:	66 90                	xchg   %ax,%ax
  102bb8:	8a 03                	mov    (%ebx),%al
  102bba:	88 45 97             	mov    %al,-0x69(%ebp)
  102bbd:	8d 76 00             	lea    0x0(%esi),%esi
  102bc0:	89 ca                	mov    %ecx,%edx
  102bc2:	ec                   	in     (%dx),%al
  102bc3:	a8 20                	test   $0x20,%al
  102bc5:	74 f9                	je     102bc0 <_ucontext+0x194>
  102bc7:	8a 45 97             	mov    -0x69(%ebp),%al
  102bca:	89 fa                	mov    %edi,%edx
  102bcc:	ee                   	out    %al,(%dx)
  102bcd:	43                   	inc    %ebx
  102bce:	39 de                	cmp    %ebx,%esi
  102bd0:	75 e6                	jne    102bb8 <_ucontext+0x18c>
  102bd2:	e8 ad ed ff ff       	call   101984 <trace_unlock>
  102bd7:	e9 6e fe ff ff       	jmp    102a4a <_ucontext+0x1e>

00102bdc <__cb_alloc>:
  102bdc:	55                   	push   %ebp
  102bdd:	89 e5                	mov    %esp,%ebp
  102bdf:	57                   	push   %edi
  102be0:	56                   	push   %esi
  102be1:	53                   	push   %ebx
  102be2:	83 ec 6c             	sub    $0x6c,%esp
  102be5:	a1 64 57 11 00       	mov    0x115764,%eax
  102bea:	25 01 00 04 00       	and    $0x40001,%eax
  102bef:	3d 01 00 04 00       	cmp    $0x40001,%eax
  102bf4:	0f 84 d2 00 00 00    	je     102ccc <__cb_alloc+0xf0>
  102bfa:	83 ec 0c             	sub    $0xc,%esp
  102bfd:	ff 75 08             	pushl  0x8(%ebp)
  102c00:	e8 1b ed ff ff       	call   101920 <_cb_alloc>
  102c05:	89 45 90             	mov    %eax,-0x70(%ebp)
  102c08:	a1 64 57 11 00       	mov    0x115764,%eax
  102c0d:	25 02 00 04 00       	and    $0x40002,%eax
  102c12:	83 c4 10             	add    $0x10,%esp
  102c15:	3d 02 00 04 00       	cmp    $0x40002,%eax
  102c1a:	74 0c                	je     102c28 <__cb_alloc+0x4c>
  102c1c:	8b 45 90             	mov    -0x70(%ebp),%eax
  102c1f:	8d 65 f4             	lea    -0xc(%ebp),%esp
  102c22:	5b                   	pop    %ebx
  102c23:	5e                   	pop    %esi
  102c24:	5f                   	pop    %edi
  102c25:	5d                   	pop    %ebp
  102c26:	c3                   	ret    
  102c27:	90                   	nop
  102c28:	8b 45 90             	mov    -0x70(%ebp),%eax
  102c2b:	89 45 a4             	mov    %eax,-0x5c(%ebp)
  102c2e:	e8 ed da ff ff       	call   100720 <_cpu>
  102c33:	66 89 45 b4          	mov    %ax,-0x4c(%ebp)
  102c37:	66 c7 45 b6 02 00    	movw   $0x2,-0x4a(%ebp)
  102c3d:	c7 45 b8 00 00 00 00 	movl   $0x0,-0x48(%ebp)
  102c44:	c7 45 bc 20 19 10 00 	movl   $0x101920,-0x44(%ebp)
  102c4b:	31 c0                	xor    %eax,%eax
  102c4d:	8b 54 05 b4          	mov    -0x4c(%ebp,%eax,1),%edx
  102c51:	89 54 05 cc          	mov    %edx,-0x34(%ebp,%eax,1)
  102c55:	83 c0 04             	add    $0x4,%eax
  102c58:	83 f8 0c             	cmp    $0xc,%eax
  102c5b:	72 f0                	jb     102c4d <__cb_alloc+0x71>
  102c5d:	e8 de ec ff ff       	call   101940 <trace_lock>
  102c62:	8d 5d cc             	lea    -0x34(%ebp),%ebx
  102c65:	8d 7d d8             	lea    -0x28(%ebp),%edi
  102c68:	b9 fd 02 00 00       	mov    $0x2fd,%ecx
  102c6d:	be f8 02 00 00       	mov    $0x2f8,%esi
  102c72:	66 90                	xchg   %ax,%ax
  102c74:	8a 03                	mov    (%ebx),%al
  102c76:	88 45 97             	mov    %al,-0x69(%ebp)
  102c79:	8d 76 00             	lea    0x0(%esi),%esi
  102c7c:	89 ca                	mov    %ecx,%edx
  102c7e:	ec                   	in     (%dx),%al
  102c7f:	a8 20                	test   $0x20,%al
  102c81:	74 f9                	je     102c7c <__cb_alloc+0xa0>
  102c83:	8a 45 97             	mov    -0x69(%ebp),%al
  102c86:	89 f2                	mov    %esi,%edx
  102c88:	ee                   	out    %al,(%dx)
  102c89:	43                   	inc    %ebx
  102c8a:	39 fb                	cmp    %edi,%ebx
  102c8c:	75 e6                	jne    102c74 <__cb_alloc+0x98>
  102c8e:	8d 5d a4             	lea    -0x5c(%ebp),%ebx
  102c91:	8d 75 a8             	lea    -0x58(%ebp),%esi
  102c94:	b9 fd 02 00 00       	mov    $0x2fd,%ecx
  102c99:	bf f8 02 00 00       	mov    $0x2f8,%edi
  102c9e:	66 90                	xchg   %ax,%ax
  102ca0:	8a 03                	mov    (%ebx),%al
  102ca2:	88 45 97             	mov    %al,-0x69(%ebp)
  102ca5:	8d 76 00             	lea    0x0(%esi),%esi
  102ca8:	89 ca                	mov    %ecx,%edx
  102caa:	ec                   	in     (%dx),%al
  102cab:	a8 20                	test   $0x20,%al
  102cad:	74 f9                	je     102ca8 <__cb_alloc+0xcc>
  102caf:	8a 45 97             	mov    -0x69(%ebp),%al
  102cb2:	89 fa                	mov    %edi,%edx
  102cb4:	ee                   	out    %al,(%dx)
  102cb5:	43                   	inc    %ebx
  102cb6:	39 de                	cmp    %ebx,%esi
  102cb8:	75 e6                	jne    102ca0 <__cb_alloc+0xc4>
  102cba:	e8 c5 ec ff ff       	call   101984 <trace_unlock>
  102cbf:	8b 45 90             	mov    -0x70(%ebp),%eax
  102cc2:	8d 65 f4             	lea    -0xc(%ebp),%esp
  102cc5:	5b                   	pop    %ebx
  102cc6:	5e                   	pop    %esi
  102cc7:	5f                   	pop    %edi
  102cc8:	5d                   	pop    %ebp
  102cc9:	c3                   	ret    
  102cca:	66 90                	xchg   %ax,%ax
  102ccc:	8b 45 08             	mov    0x8(%ebp),%eax
  102ccf:	89 45 d8             	mov    %eax,-0x28(%ebp)
  102cd2:	c7 45 dc 00 00 00 00 	movl   $0x0,-0x24(%ebp)
  102cd9:	c7 45 e0 00 00 00 00 	movl   $0x0,-0x20(%ebp)
  102ce0:	c7 45 e4 00 00 00 00 	movl   $0x0,-0x1c(%ebp)
  102ce7:	e8 34 da ff ff       	call   100720 <_cpu>
  102cec:	66 89 45 a8          	mov    %ax,-0x58(%ebp)
  102cf0:	66 c7 45 aa 01 00    	movw   $0x1,-0x56(%ebp)
  102cf6:	c7 45 ac 00 00 00 00 	movl   $0x0,-0x54(%ebp)
  102cfd:	c7 45 b0 20 19 10 00 	movl   $0x101920,-0x50(%ebp)
  102d04:	31 c0                	xor    %eax,%eax
  102d06:	8b 54 05 a8          	mov    -0x58(%ebp,%eax,1),%edx
  102d0a:	89 54 05 c0          	mov    %edx,-0x40(%ebp,%eax,1)
  102d0e:	83 c0 04             	add    $0x4,%eax
  102d11:	83 f8 0c             	cmp    $0xc,%eax
  102d14:	72 f0                	jb     102d06 <__cb_alloc+0x12a>
  102d16:	e8 25 ec ff ff       	call   101940 <trace_lock>
  102d1b:	8d 5d c0             	lea    -0x40(%ebp),%ebx
  102d1e:	8d 75 cc             	lea    -0x34(%ebp),%esi
  102d21:	b9 fd 02 00 00       	mov    $0x2fd,%ecx
  102d26:	bf f8 02 00 00       	mov    $0x2f8,%edi
  102d2b:	90                   	nop
  102d2c:	8a 03                	mov    (%ebx),%al
  102d2e:	88 45 97             	mov    %al,-0x69(%ebp)
  102d31:	8d 76 00             	lea    0x0(%esi),%esi
  102d34:	89 ca                	mov    %ecx,%edx
  102d36:	ec                   	in     (%dx),%al
  102d37:	a8 20                	test   $0x20,%al
  102d39:	74 f9                	je     102d34 <__cb_alloc+0x158>
  102d3b:	8a 45 97             	mov    -0x69(%ebp),%al
  102d3e:	89 fa                	mov    %edi,%edx
  102d40:	ee                   	out    %al,(%dx)
  102d41:	43                   	inc    %ebx
  102d42:	39 f3                	cmp    %esi,%ebx
  102d44:	75 e6                	jne    102d2c <__cb_alloc+0x150>
  102d46:	8d 5d d8             	lea    -0x28(%ebp),%ebx
  102d49:	8d 75 e8             	lea    -0x18(%ebp),%esi
  102d4c:	b9 fd 02 00 00       	mov    $0x2fd,%ecx
  102d51:	bf f8 02 00 00       	mov    $0x2f8,%edi
  102d56:	66 90                	xchg   %ax,%ax
  102d58:	8a 03                	mov    (%ebx),%al
  102d5a:	88 45 97             	mov    %al,-0x69(%ebp)
  102d5d:	8d 76 00             	lea    0x0(%esi),%esi
  102d60:	89 ca                	mov    %ecx,%edx
  102d62:	ec                   	in     (%dx),%al
  102d63:	a8 20                	test   $0x20,%al
  102d65:	74 f9                	je     102d60 <__cb_alloc+0x184>
  102d67:	8a 45 97             	mov    -0x69(%ebp),%al
  102d6a:	89 fa                	mov    %edi,%edx
  102d6c:	ee                   	out    %al,(%dx)
  102d6d:	43                   	inc    %ebx
  102d6e:	39 de                	cmp    %ebx,%esi
  102d70:	75 e6                	jne    102d58 <__cb_alloc+0x17c>
  102d72:	e8 0d ec ff ff       	call   101984 <trace_unlock>
  102d77:	e9 7e fe ff ff       	jmp    102bfa <__cb_alloc+0x1e>

00102d7c <__cb_free>:
  102d7c:	55                   	push   %ebp
  102d7d:	89 e5                	mov    %esp,%ebp
  102d7f:	57                   	push   %edi
  102d80:	56                   	push   %esi
  102d81:	53                   	push   %ebx
  102d82:	83 ec 6c             	sub    $0x6c,%esp
  102d85:	8b 75 08             	mov    0x8(%ebp),%esi
  102d88:	a1 64 57 11 00       	mov    0x115764,%eax
  102d8d:	25 01 00 04 00       	and    $0x40001,%eax
  102d92:	3d 01 00 04 00       	cmp    $0x40001,%eax
  102d97:	0f 84 c3 00 00 00    	je     102e60 <__cb_free+0xe4>
  102d9d:	83 ec 0c             	sub    $0xc,%esp
  102da0:	56                   	push   %esi
  102da1:	e8 8e eb ff ff       	call   101934 <_cb_free>
  102da6:	a1 64 57 11 00       	mov    0x115764,%eax
  102dab:	25 02 00 04 00       	and    $0x40002,%eax
  102db0:	83 c4 10             	add    $0x10,%esp
  102db3:	3d 02 00 04 00       	cmp    $0x40002,%eax
  102db8:	74 0a                	je     102dc4 <__cb_free+0x48>
  102dba:	8d 65 f4             	lea    -0xc(%ebp),%esp
  102dbd:	5b                   	pop    %ebx
  102dbe:	5e                   	pop    %esi
  102dbf:	5f                   	pop    %edi
  102dc0:	5d                   	pop    %ebp
  102dc1:	c3                   	ret    
  102dc2:	66 90                	xchg   %ax,%ax
  102dc4:	c7 45 a4 00 00 00 00 	movl   $0x0,-0x5c(%ebp)
  102dcb:	e8 50 d9 ff ff       	call   100720 <_cpu>
  102dd0:	66 89 45 b4          	mov    %ax,-0x4c(%ebp)
  102dd4:	66 c7 45 b6 02 00    	movw   $0x2,-0x4a(%ebp)
  102dda:	c7 45 b8 00 00 00 00 	movl   $0x0,-0x48(%ebp)
  102de1:	c7 45 bc 34 19 10 00 	movl   $0x101934,-0x44(%ebp)
  102de8:	31 c0                	xor    %eax,%eax
  102dea:	8b 54 05 b4          	mov    -0x4c(%ebp,%eax,1),%edx
  102dee:	89 54 05 cc          	mov    %edx,-0x34(%ebp,%eax,1)
  102df2:	83 c0 04             	add    $0x4,%eax
  102df5:	83 f8 0c             	cmp    $0xc,%eax
  102df8:	72 f0                	jb     102dea <__cb_free+0x6e>
  102dfa:	e8 41 eb ff ff       	call   101940 <trace_lock>
  102dff:	8d 5d cc             	lea    -0x34(%ebp),%ebx
  102e02:	8d 7d d8             	lea    -0x28(%ebp),%edi
  102e05:	b9 fd 02 00 00       	mov    $0x2fd,%ecx
  102e0a:	be f8 02 00 00       	mov    $0x2f8,%esi
  102e0f:	90                   	nop
  102e10:	8a 03                	mov    (%ebx),%al
  102e12:	88 45 97             	mov    %al,-0x69(%ebp)
  102e15:	8d 76 00             	lea    0x0(%esi),%esi
  102e18:	89 ca                	mov    %ecx,%edx
  102e1a:	ec                   	in     (%dx),%al
  102e1b:	a8 20                	test   $0x20,%al
  102e1d:	74 f9                	je     102e18 <__cb_free+0x9c>
  102e1f:	8a 45 97             	mov    -0x69(%ebp),%al
  102e22:	89 f2                	mov    %esi,%edx
  102e24:	ee                   	out    %al,(%dx)
  102e25:	43                   	inc    %ebx
  102e26:	39 fb                	cmp    %edi,%ebx
  102e28:	75 e6                	jne    102e10 <__cb_free+0x94>
  102e2a:	8d 5d a4             	lea    -0x5c(%ebp),%ebx
  102e2d:	8d 75 a8             	lea    -0x58(%ebp),%esi
  102e30:	c6 45 97 00          	movb   $0x0,-0x69(%ebp)
  102e34:	b9 fd 02 00 00       	mov    $0x2fd,%ecx
  102e39:	bf f8 02 00 00       	mov    $0x2f8,%edi
  102e3e:	66 90                	xchg   %ax,%ax
  102e40:	89 ca                	mov    %ecx,%edx
  102e42:	ec                   	in     (%dx),%al
  102e43:	a8 20                	test   $0x20,%al
  102e45:	74 f9                	je     102e40 <__cb_free+0xc4>
  102e47:	8a 45 97             	mov    -0x69(%ebp),%al
  102e4a:	89 fa                	mov    %edi,%edx
  102e4c:	ee                   	out    %al,(%dx)
  102e4d:	43                   	inc    %ebx
  102e4e:	39 de                	cmp    %ebx,%esi
  102e50:	0f 84 ba 00 00 00    	je     102f10 <__cb_free+0x194>
  102e56:	8a 03                	mov    (%ebx),%al
  102e58:	88 45 97             	mov    %al,-0x69(%ebp)
  102e5b:	eb e3                	jmp    102e40 <__cb_free+0xc4>
  102e5d:	8d 76 00             	lea    0x0(%esi),%esi
  102e60:	89 75 d8             	mov    %esi,-0x28(%ebp)
  102e63:	c7 45 dc 00 00 00 00 	movl   $0x0,-0x24(%ebp)
  102e6a:	c7 45 e0 00 00 00 00 	movl   $0x0,-0x20(%ebp)
  102e71:	c7 45 e4 00 00 00 00 	movl   $0x0,-0x1c(%ebp)
  102e78:	e8 a3 d8 ff ff       	call   100720 <_cpu>
  102e7d:	66 89 45 a8          	mov    %ax,-0x58(%ebp)
  102e81:	66 c7 45 aa 01 00    	movw   $0x1,-0x56(%ebp)
  102e87:	c7 45 ac 00 00 00 00 	movl   $0x0,-0x54(%ebp)
  102e8e:	c7 45 b0 34 19 10 00 	movl   $0x101934,-0x50(%ebp)
  102e95:	31 c0                	xor    %eax,%eax
  102e97:	8b 54 05 a8          	mov    -0x58(%ebp,%eax,1),%edx
  102e9b:	89 54 05 c0          	mov    %edx,-0x40(%ebp,%eax,1)
  102e9f:	83 c0 04             	add    $0x4,%eax
  102ea2:	83 f8 0c             	cmp    $0xc,%eax
  102ea5:	72 f0                	jb     102e97 <__cb_free+0x11b>
  102ea7:	e8 94 ea ff ff       	call   101940 <trace_lock>
  102eac:	8d 5d c0             	lea    -0x40(%ebp),%ebx
  102eaf:	b9 fd 02 00 00       	mov    $0x2fd,%ecx
  102eb4:	bf f8 02 00 00       	mov    $0x2f8,%edi
  102eb9:	8d 76 00             	lea    0x0(%esi),%esi
  102ebc:	8a 03                	mov    (%ebx),%al
  102ebe:	88 45 97             	mov    %al,-0x69(%ebp)
  102ec1:	8d 76 00             	lea    0x0(%esi),%esi
  102ec4:	89 ca                	mov    %ecx,%edx
  102ec6:	ec                   	in     (%dx),%al
  102ec7:	a8 20                	test   $0x20,%al
  102ec9:	74 f9                	je     102ec4 <__cb_free+0x148>
  102ecb:	8a 45 97             	mov    -0x69(%ebp),%al
  102ece:	89 fa                	mov    %edi,%edx
  102ed0:	ee                   	out    %al,(%dx)
  102ed1:	43                   	inc    %ebx
  102ed2:	8d 45 cc             	lea    -0x34(%ebp),%eax
  102ed5:	39 c3                	cmp    %eax,%ebx
  102ed7:	75 e3                	jne    102ebc <__cb_free+0x140>
  102ed9:	8d 5d d8             	lea    -0x28(%ebp),%ebx
  102edc:	b9 fd 02 00 00       	mov    $0x2fd,%ecx
  102ee1:	bf f8 02 00 00       	mov    $0x2f8,%edi
  102ee6:	66 90                	xchg   %ax,%ax
  102ee8:	8a 03                	mov    (%ebx),%al
  102eea:	88 45 97             	mov    %al,-0x69(%ebp)
  102eed:	8d 76 00             	lea    0x0(%esi),%esi
  102ef0:	89 ca                	mov    %ecx,%edx
  102ef2:	ec                   	in     (%dx),%al
  102ef3:	a8 20                	test   $0x20,%al
  102ef5:	74 f9                	je     102ef0 <__cb_free+0x174>
  102ef7:	8a 45 97             	mov    -0x69(%ebp),%al
  102efa:	89 fa                	mov    %edi,%edx
  102efc:	ee                   	out    %al,(%dx)
  102efd:	43                   	inc    %ebx
  102efe:	8d 45 e8             	lea    -0x18(%ebp),%eax
  102f01:	39 d8                	cmp    %ebx,%eax
  102f03:	75 e3                	jne    102ee8 <__cb_free+0x16c>
  102f05:	e8 7a ea ff ff       	call   101984 <trace_unlock>
  102f0a:	e9 8e fe ff ff       	jmp    102d9d <__cb_free+0x21>
  102f0f:	90                   	nop
  102f10:	8d 65 f4             	lea    -0xc(%ebp),%esp
  102f13:	5b                   	pop    %ebx
  102f14:	5e                   	pop    %esi
  102f15:	5f                   	pop    %edi
  102f16:	5d                   	pop    %ebp
  102f17:	e9 68 ea ff ff       	jmp    101984 <trace_unlock>

00102f1c <consumer>:
  102f1c:	55                   	push   %ebp
  102f1d:	89 e5                	mov    %esp,%ebp
  102f1f:	83 ec 08             	sub    $0x8,%esp
  102f22:	66 90                	xchg   %ax,%ax
  102f24:	83 ec 0c             	sub    $0xc,%esp
  102f27:	68 60 e3 11 00       	push   $0x11e360
  102f2c:	a1 c4 80 10 00       	mov    0x1080c4,%eax
  102f31:	ff 50 1c             	call   *0x1c(%eax)
  102f34:	c7 04 24 c0 e3 11 00 	movl   $0x11e3c0,(%esp)
  102f3b:	a1 c4 80 10 00       	mov    0x1080c4,%eax
  102f40:	ff 50 1c             	call   *0x1c(%eax)
  102f43:	a1 68 57 11 00       	mov    0x115768,%eax
  102f48:	48                   	dec    %eax
  102f49:	a3 68 57 11 00       	mov    %eax,0x115768
  102f4e:	5a                   	pop    %edx
  102f4f:	59                   	pop    %ecx
  102f50:	50                   	push   %eax
  102f51:	68 04 69 10 00       	push   $0x106904
  102f56:	e8 d5 27 00 00       	call   105730 <printf>
  102f5b:	c7 04 24 c0 e3 11 00 	movl   $0x11e3c0,(%esp)
  102f62:	a1 c4 80 10 00       	mov    0x1080c4,%eax
  102f67:	ff 50 20             	call   *0x20(%eax)
  102f6a:	c7 04 24 20 e4 11 00 	movl   $0x11e420,(%esp)
  102f71:	a1 c4 80 10 00       	mov    0x1080c4,%eax
  102f76:	ff 50 20             	call   *0x20(%eax)
  102f79:	83 c4 10             	add    $0x10,%esp
  102f7c:	eb a6                	jmp    102f24 <consumer+0x8>
  102f7e:	66 90                	xchg   %ax,%ax

00102f80 <producer>:
  102f80:	55                   	push   %ebp
  102f81:	89 e5                	mov    %esp,%ebp
  102f83:	83 ec 08             	sub    $0x8,%esp
  102f86:	66 90                	xchg   %ax,%ax
  102f88:	83 ec 0c             	sub    $0xc,%esp
  102f8b:	68 20 e4 11 00       	push   $0x11e420
  102f90:	a1 c4 80 10 00       	mov    0x1080c4,%eax
  102f95:	ff 50 1c             	call   *0x1c(%eax)
  102f98:	c7 04 24 c0 e3 11 00 	movl   $0x11e3c0,(%esp)
  102f9f:	a1 c4 80 10 00       	mov    0x1080c4,%eax
  102fa4:	ff 50 1c             	call   *0x1c(%eax)
  102fa7:	a1 68 57 11 00       	mov    0x115768,%eax
  102fac:	40                   	inc    %eax
  102fad:	a3 68 57 11 00       	mov    %eax,0x115768
  102fb2:	5a                   	pop    %edx
  102fb3:	59                   	pop    %ecx
  102fb4:	50                   	push   %eax
  102fb5:	68 04 69 10 00       	push   $0x106904
  102fba:	e8 71 27 00 00       	call   105730 <printf>
  102fbf:	c7 04 24 c0 e3 11 00 	movl   $0x11e3c0,(%esp)
  102fc6:	a1 c4 80 10 00       	mov    0x1080c4,%eax
  102fcb:	ff 50 20             	call   *0x20(%eax)
  102fce:	c7 04 24 60 e3 11 00 	movl   $0x11e360,(%esp)
  102fd5:	a1 c4 80 10 00       	mov    0x1080c4,%eax
  102fda:	ff 50 20             	call   *0x20(%eax)
  102fdd:	83 c4 10             	add    $0x10,%esp
  102fe0:	eb a6                	jmp    102f88 <producer+0x8>
  102fe2:	66 90                	xchg   %ax,%ax

00102fe4 <main>:
  102fe4:	8d 4c 24 04          	lea    0x4(%esp),%ecx
  102fe8:	83 e4 f0             	and    $0xfffffff0,%esp
  102feb:	ff 71 fc             	pushl  -0x4(%ecx)
  102fee:	55                   	push   %ebp
  102fef:	89 e5                	mov    %esp,%ebp
  102ff1:	53                   	push   %ebx
  102ff2:	51                   	push   %ecx
  102ff3:	e8 6c 2e 00 00       	call   105e64 <_ioe_init>
  102ff8:	83 ec 0c             	sub    $0xc,%esp
  102ffb:	a1 e4 4e 11 00       	mov    0x114ee4,%eax
  103000:	ff 70 08             	pushl  0x8(%eax)
  103003:	e8 ec e9 ff ff       	call   1019f4 <_cte_init>
  103008:	a1 e4 4e 11 00       	mov    0x114ee4,%eax
  10300d:	ff 10                	call   *(%eax)
  10300f:	a1 c4 80 10 00       	mov    0x1080c4,%eax
  103014:	8b 58 04             	mov    0x4(%eax),%ebx
  103017:	c7 04 24 80 00 00 00 	movl   $0x80,(%esp)
  10301e:	a1 90 80 10 00       	mov    0x108090,%eax
  103023:	ff 50 04             	call   *0x4(%eax)
  103026:	6a 00                	push   $0x0
  103028:	68 80 2f 10 00       	push   $0x102f80
  10302d:	68 08 69 10 00       	push   $0x106908
  103032:	50                   	push   %eax
  103033:	ff d3                	call   *%ebx
  103035:	a1 c4 80 10 00       	mov    0x1080c4,%eax
  10303a:	8b 58 04             	mov    0x4(%eax),%ebx
  10303d:	83 c4 14             	add    $0x14,%esp
  103040:	68 80 00 00 00       	push   $0x80
  103045:	a1 90 80 10 00       	mov    0x108090,%eax
  10304a:	ff 50 04             	call   *0x4(%eax)
  10304d:	6a 00                	push   $0x0
  10304f:	68 80 2f 10 00       	push   $0x102f80
  103054:	68 20 69 10 00       	push   $0x106920
  103059:	50                   	push   %eax
  10305a:	ff d3                	call   *%ebx
  10305c:	a1 c4 80 10 00       	mov    0x1080c4,%eax
  103061:	8b 58 04             	mov    0x4(%eax),%ebx
  103064:	83 c4 14             	add    $0x14,%esp
  103067:	68 80 00 00 00       	push   $0x80
  10306c:	a1 90 80 10 00       	mov    0x108090,%eax
  103071:	ff 50 04             	call   *0x4(%eax)
  103074:	6a 00                	push   $0x0
  103076:	68 1c 2f 10 00       	push   $0x102f1c
  10307b:	68 38 69 10 00       	push   $0x106938
  103080:	50                   	push   %eax
  103081:	ff d3                	call   *%ebx
  103083:	83 c4 1c             	add    $0x1c,%esp
  103086:	6a 08                	push   $0x8
  103088:	68 50 69 10 00       	push   $0x106950
  10308d:	68 20 e4 11 00       	push   $0x11e420
  103092:	a1 c4 80 10 00       	mov    0x1080c4,%eax
  103097:	ff 50 18             	call   *0x18(%eax)
  10309a:	83 c4 0c             	add    $0xc,%esp
  10309d:	6a 00                	push   $0x0
  10309f:	68 5d 69 10 00       	push   $0x10695d
  1030a4:	68 60 e3 11 00       	push   $0x11e360
  1030a9:	a1 c4 80 10 00       	mov    0x1080c4,%eax
  1030ae:	ff 50 18             	call   *0x18(%eax)
  1030b1:	83 c4 0c             	add    $0xc,%esp
  1030b4:	6a 01                	push   $0x1
  1030b6:	68 f1 6a 10 00       	push   $0x106af1
  1030bb:	68 c0 e3 11 00       	push   $0x11e3c0
  1030c0:	a1 c4 80 10 00       	mov    0x1080c4,%eax
  1030c5:	ff 50 18             	call   *0x18(%eax)
  1030c8:	58                   	pop    %eax
  1030c9:	a1 e4 4e 11 00       	mov    0x114ee4,%eax
  1030ce:	ff 70 04             	pushl  0x4(%eax)
  1030d1:	e8 96 d5 ff ff       	call   10066c <_mpe_init>
  1030d6:	b8 01 00 00 00       	mov    $0x1,%eax
  1030db:	8d 65 f8             	lea    -0x8(%ebp),%esp
  1030de:	59                   	pop    %ecx
  1030df:	5b                   	pop    %ebx
  1030e0:	5d                   	pop    %ebp
  1030e1:	8d 61 fc             	lea    -0x4(%ecx),%esp
  1030e4:	c3                   	ret    
  1030e5:	66 90                	xchg   %ax,%ax
  1030e7:	90                   	nop

001030e8 <pmm_init>:
  1030e8:	55                   	push   %ebp
  1030e9:	89 e5                	mov    %esp,%ebp
  1030eb:	53                   	push   %ebx
  1030ec:	50                   	push   %eax
  1030ed:	8d 76 00             	lea    0x0(%esi),%esi
  1030f0:	83 ec 08             	sub    $0x8,%esp
  1030f3:	6a 01                	push   $0x1
  1030f5:	68 80 a4 13 00       	push   $0x13a480
  1030fa:	e8 31 d6 ff ff       	call   100730 <_atomic_xchg>
  1030ff:	83 c4 10             	add    $0x10,%esp
  103102:	85 c0                	test   %eax,%eax
  103104:	75 ea                	jne    1030f0 <pmm_init+0x8>
  103106:	8b 1d 84 5e 11 00    	mov    0x115e84,%ebx
  10310c:	8b 0d 88 5e 11 00    	mov    0x115e88,%ecx
  103112:	ba 80 e4 11 00       	mov    $0x11e480,%edx
  103117:	90                   	nop
  103118:	89 02                	mov    %eax,(%edx)
  10311a:	c7 42 04 00 00 00 00 	movl   $0x0,0x4(%edx)
  103121:	40                   	inc    %eax
  103122:	83 c2 1c             	add    $0x1c,%edx
  103125:	3d 00 10 00 00       	cmp    $0x1000,%eax
  10312a:	75 ec                	jne    103118 <pmm_init+0x30>
  10312c:	c7 05 d8 a4 13 00 a0 	movl   $0x13a4a0,0x13a4d8
  103133:	a4 13 00 
  103136:	c7 05 dc a4 13 00 bc 	movl   $0x13a4bc,0x13a4dc
  10313d:	a4 13 00 
  103140:	c7 05 b4 a4 13 00 00 	movl   $0x0,0x13a4b4
  103147:	00 00 00 
  10314a:	c7 05 b8 a4 13 00 80 	movl   $0x11e480,0x13a4b8
  103151:	e4 11 00 
  103154:	c7 05 d0 a4 13 00 80 	movl   $0x11e480,0x13a4d0
  10315b:	e4 11 00 
  10315e:	c7 05 d4 a4 13 00 00 	movl   $0x0,0x13a4d4
  103165:	00 00 00 
  103168:	c7 05 84 e4 11 00 01 	movl   $0x1,0x11e484
  10316f:	00 00 00 
  103172:	c7 05 94 e4 11 00 a0 	movl   $0x13a4a0,0x11e494
  103179:	a4 13 00 
  10317c:	c7 05 98 e4 11 00 bc 	movl   $0x13a4bc,0x11e498
  103183:	a4 13 00 
  103186:	89 1d 8c e4 11 00    	mov    %ebx,0x11e48c
  10318c:	89 0d 90 e4 11 00    	mov    %ecx,0x11e490
  103192:	29 d9                	sub    %ebx,%ecx
  103194:	89 0d 88 e4 11 00    	mov    %ecx,0x11e488
  10319a:	c7 05 e0 a4 13 00 01 	movl   $0x1,0x13a4e0
  1031a1:	00 00 00 
  1031a4:	83 ec 08             	sub    $0x8,%esp
  1031a7:	6a 00                	push   $0x0
  1031a9:	68 80 a4 13 00       	push   $0x13a480
  1031ae:	e8 7d d5 ff ff       	call   100730 <_atomic_xchg>
  1031b3:	83 c4 10             	add    $0x10,%esp
  1031b6:	8b 5d fc             	mov    -0x4(%ebp),%ebx
  1031b9:	c9                   	leave  
  1031ba:	c3                   	ret    
  1031bb:	90                   	nop

001031bc <free_cmp>:
  1031bc:	8b 0d d8 a4 13 00    	mov    0x13a4d8,%ecx
  1031c2:	39 c1                	cmp    %eax,%ecx
  1031c4:	74 2a                	je     1031f0 <free_cmp+0x34>
  1031c6:	55                   	push   %ebp
  1031c7:	89 e5                	mov    %esp,%ebp
  1031c9:	53                   	push   %ebx
  1031ca:	53                   	push   %ebx
  1031cb:	8b 1d dc a4 13 00    	mov    0x13a4dc,%ebx
  1031d1:	39 d3                	cmp    %edx,%ebx
  1031d3:	74 23                	je     1031f8 <free_cmp+0x3c>
  1031d5:	39 c3                	cmp    %eax,%ebx
  1031d7:	74 4a                	je     103223 <free_cmp+0x67>
  1031d9:	39 d1                	cmp    %edx,%ecx
  1031db:	74 25                	je     103202 <free_cmp+0x46>
  1031dd:	8b 5a 0c             	mov    0xc(%edx),%ebx
  1031e0:	39 58 0c             	cmp    %ebx,0xc(%eax)
  1031e3:	74 5f                	je     103244 <free_cmp+0x88>
  1031e5:	0f 92 c0             	setb   %al
  1031e8:	0f b6 c0             	movzbl %al,%eax
  1031eb:	8b 5d fc             	mov    -0x4(%ebp),%ebx
  1031ee:	c9                   	leave  
  1031ef:	c3                   	ret    
  1031f0:	b8 01 00 00 00       	mov    $0x1,%eax
  1031f5:	c3                   	ret    
  1031f6:	66 90                	xchg   %ax,%ax
  1031f8:	b8 01 00 00 00       	mov    $0x1,%eax
  1031fd:	8b 5d fc             	mov    -0x4(%ebp),%ebx
  103200:	c9                   	leave  
  103201:	c3                   	ret    
  103202:	52                   	push   %edx
  103203:	68 d4 00 00 00       	push   $0xd4
  103208:	68 70 69 10 00       	push   $0x106970
  10320d:	68 7c 69 10 00       	push   $0x10697c
  103212:	e8 19 25 00 00       	call   105730 <printf>
  103217:	c7 04 24 01 00 00 00 	movl   $0x1,(%esp)
  10321e:	e8 ed cd ff ff       	call   100010 <_halt>
  103223:	51                   	push   %ecx
  103224:	68 d3 00 00 00       	push   $0xd3
  103229:	68 70 69 10 00       	push   $0x106970
  10322e:	68 7c 69 10 00       	push   $0x10697c
  103233:	e8 f8 24 00 00       	call   105730 <printf>
  103238:	c7 04 24 01 00 00 00 	movl   $0x1,(%esp)
  10323f:	e8 cc cd ff ff       	call   100010 <_halt>
  103244:	50                   	push   %eax
  103245:	68 d5 00 00 00       	push   $0xd5
  10324a:	68 70 69 10 00       	push   $0x106970
  10324f:	68 7c 69 10 00       	push   $0x10697c
  103254:	e8 d7 24 00 00       	call   105730 <printf>
  103259:	c7 04 24 01 00 00 00 	movl   $0x1,(%esp)
  103260:	e8 ab cd ff ff       	call   100010 <_halt>
  103265:	8d 76 00             	lea    0x0(%esi),%esi

00103268 <free_adjcent>:
  103268:	8b 0d d8 a4 13 00    	mov    0x13a4d8,%ecx
  10326e:	39 c1                	cmp    %eax,%ecx
  103270:	74 2a                	je     10329c <free_adjcent+0x34>
  103272:	55                   	push   %ebp
  103273:	89 e5                	mov    %esp,%ebp
  103275:	53                   	push   %ebx
  103276:	53                   	push   %ebx
  103277:	8b 1d dc a4 13 00    	mov    0x13a4dc,%ebx
  10327d:	39 d3                	cmp    %edx,%ebx
  10327f:	74 1f                	je     1032a0 <free_adjcent+0x38>
  103281:	39 c3                	cmp    %eax,%ebx
  103283:	74 22                	je     1032a7 <free_adjcent+0x3f>
  103285:	39 d1                	cmp    %edx,%ecx
  103287:	74 3f                	je     1032c8 <free_adjcent+0x60>
  103289:	8b 5a 0c             	mov    0xc(%edx),%ebx
  10328c:	39 58 10             	cmp    %ebx,0x10(%eax)
  10328f:	0f 94 c0             	sete   %al
  103292:	0f b6 c0             	movzbl %al,%eax
  103295:	8b 5d fc             	mov    -0x4(%ebp),%ebx
  103298:	c9                   	leave  
  103299:	c3                   	ret    
  10329a:	66 90                	xchg   %ax,%ax
  10329c:	31 c0                	xor    %eax,%eax
  10329e:	c3                   	ret    
  10329f:	90                   	nop
  1032a0:	31 c0                	xor    %eax,%eax
  1032a2:	8b 5d fc             	mov    -0x4(%ebp),%ebx
  1032a5:	c9                   	leave  
  1032a6:	c3                   	ret    
  1032a7:	52                   	push   %edx
  1032a8:	68 a8 00 00 00       	push   $0xa8
  1032ad:	68 70 69 10 00       	push   $0x106970
  1032b2:	68 7c 69 10 00       	push   $0x10697c
  1032b7:	e8 74 24 00 00       	call   105730 <printf>
  1032bc:	c7 04 24 01 00 00 00 	movl   $0x1,(%esp)
  1032c3:	e8 48 cd ff ff       	call   100010 <_halt>
  1032c8:	50                   	push   %eax
  1032c9:	68 a9 00 00 00       	push   $0xa9
  1032ce:	68 70 69 10 00       	push   $0x106970
  1032d3:	68 7c 69 10 00       	push   $0x10697c
  1032d8:	e8 53 24 00 00       	call   105730 <printf>
  1032dd:	c7 04 24 01 00 00 00 	movl   $0x1,(%esp)
  1032e4:	e8 27 cd ff ff       	call   100010 <_halt>
  1032e9:	8d 76 00             	lea    0x0(%esi),%esi

001032ec <free_check>:
  1032ec:	55                   	push   %ebp
  1032ed:	89 e5                	mov    %esp,%ebp
  1032ef:	56                   	push   %esi
  1032f0:	53                   	push   %ebx
  1032f1:	a1 d8 a4 13 00       	mov    0x13a4d8,%eax
  1032f6:	8b 40 18             	mov    0x18(%eax),%eax
  1032f9:	8b 1d dc a4 13 00    	mov    0x13a4dc,%ebx
  1032ff:	31 c9                	xor    %ecx,%ecx
  103301:	eb 14                	jmp    103317 <free_check+0x2b>
  103303:	90                   	nop
  103304:	41                   	inc    %ecx
  103305:	8b 50 18             	mov    0x18(%eax),%edx
  103308:	39 42 14             	cmp    %eax,0x14(%edx)
  10330b:	75 1d                	jne    10332a <free_check+0x3e>
  10330d:	8b 70 14             	mov    0x14(%eax),%esi
  103310:	39 46 18             	cmp    %eax,0x18(%esi)
  103313:	75 36                	jne    10334b <free_check+0x5f>
  103315:	89 d0                	mov    %edx,%eax
  103317:	39 c3                	cmp    %eax,%ebx
  103319:	75 e9                	jne    103304 <free_check+0x18>
  10331b:	39 0d e0 a4 13 00    	cmp    %ecx,0x13a4e0
  103321:	75 30                	jne    103353 <free_check+0x67>
  103323:	8d 65 f8             	lea    -0x8(%ebp),%esp
  103326:	5b                   	pop    %ebx
  103327:	5e                   	pop    %esi
  103328:	5d                   	pop    %ebp
  103329:	c3                   	ret    
  10332a:	51                   	push   %ecx
  10332b:	68 80 00 00 00       	push   $0x80
  103330:	68 70 69 10 00       	push   $0x106970
  103335:	68 7c 69 10 00       	push   $0x10697c
  10333a:	e8 f1 23 00 00       	call   105730 <printf>
  10333f:	c7 04 24 01 00 00 00 	movl   $0x1,(%esp)
  103346:	e8 c5 cc ff ff       	call   100010 <_halt>
  10334b:	52                   	push   %edx
  10334c:	68 81 00 00 00       	push   $0x81
  103351:	eb dd                	jmp    103330 <free_check+0x44>
  103353:	50                   	push   %eax
  103354:	68 84 00 00 00       	push   $0x84
  103359:	eb d5                	jmp    103330 <free_check+0x44>
  10335b:	90                   	nop

0010335c <free_merge>:
  10335c:	55                   	push   %ebp
  10335d:	89 e5                	mov    %esp,%ebp
  10335f:	56                   	push   %esi
  103360:	53                   	push   %ebx
  103361:	89 c6                	mov    %eax,%esi
  103363:	89 d3                	mov    %edx,%ebx
  103365:	e8 fe fe ff ff       	call   103268 <free_adjcent>
  10336a:	85 c0                	test   %eax,%eax
  10336c:	74 72                	je     1033e0 <free_merge+0x84>
  10336e:	39 35 d8 a4 13 00    	cmp    %esi,0x13a4d8
  103374:	0f 84 a7 00 00 00    	je     103421 <free_merge+0xc5>
  10337a:	39 1d dc a4 13 00    	cmp    %ebx,0x13a4dc
  103380:	0f 84 93 00 00 00    	je     103419 <free_merge+0xbd>
  103386:	83 7e 04 01          	cmpl   $0x1,0x4(%esi)
  10338a:	0f 85 81 00 00 00    	jne    103411 <free_merge+0xb5>
  103390:	83 7b 04 01          	cmpl   $0x1,0x4(%ebx)
  103394:	75 73                	jne    103409 <free_merge+0xad>
  103396:	8b 43 18             	mov    0x18(%ebx),%eax
  103399:	89 46 18             	mov    %eax,0x18(%esi)
  10339c:	8b 43 18             	mov    0x18(%ebx),%eax
  10339f:	89 70 14             	mov    %esi,0x14(%eax)
  1033a2:	c7 43 14 00 00 00 00 	movl   $0x0,0x14(%ebx)
  1033a9:	c7 43 18 00 00 00 00 	movl   $0x0,0x18(%ebx)
  1033b0:	8b 4b 10             	mov    0x10(%ebx),%ecx
  1033b3:	89 ca                	mov    %ecx,%edx
  1033b5:	2b 56 0c             	sub    0xc(%esi),%edx
  1033b8:	8b 43 08             	mov    0x8(%ebx),%eax
  1033bb:	03 46 08             	add    0x8(%esi),%eax
  1033be:	39 c2                	cmp    %eax,%edx
  1033c0:	75 3f                	jne    103401 <free_merge+0xa5>
  1033c2:	89 4e 10             	mov    %ecx,0x10(%esi)
  1033c5:	89 56 08             	mov    %edx,0x8(%esi)
  1033c8:	c7 43 04 00 00 00 00 	movl   $0x0,0x4(%ebx)
  1033cf:	ff 0d e0 a4 13 00    	decl   0x13a4e0
  1033d5:	8d 65 f8             	lea    -0x8(%ebp),%esp
  1033d8:	5b                   	pop    %ebx
  1033d9:	5e                   	pop    %esi
  1033da:	5d                   	pop    %ebp
  1033db:	e9 0c ff ff ff       	jmp    1032ec <free_check>
  1033e0:	50                   	push   %eax
  1033e1:	68 b4 00 00 00       	push   $0xb4
  1033e6:	68 70 69 10 00       	push   $0x106970
  1033eb:	68 7c 69 10 00       	push   $0x10697c
  1033f0:	e8 3b 23 00 00       	call   105730 <printf>
  1033f5:	c7 04 24 01 00 00 00 	movl   $0x1,(%esp)
  1033fc:	e8 0f cc ff ff       	call   100010 <_halt>
  103401:	50                   	push   %eax
  103402:	68 c1 00 00 00       	push   $0xc1
  103407:	eb dd                	jmp    1033e6 <free_merge+0x8a>
  103409:	52                   	push   %edx
  10340a:	68 b8 00 00 00       	push   $0xb8
  10340f:	eb d5                	jmp    1033e6 <free_merge+0x8a>
  103411:	51                   	push   %ecx
  103412:	68 b7 00 00 00       	push   $0xb7
  103417:	eb cd                	jmp    1033e6 <free_merge+0x8a>
  103419:	53                   	push   %ebx
  10341a:	68 b6 00 00 00       	push   $0xb6
  10341f:	eb c5                	jmp    1033e6 <free_merge+0x8a>
  103421:	56                   	push   %esi
  103422:	68 b5 00 00 00       	push   $0xb5
  103427:	eb bd                	jmp    1033e6 <free_merge+0x8a>
  103429:	8d 76 00             	lea    0x0(%esi),%esi

0010342c <kfree>:
  10342c:	55                   	push   %ebp
  10342d:	89 e5                	mov    %esp,%ebp
  10342f:	57                   	push   %edi
  103430:	56                   	push   %esi
  103431:	53                   	push   %ebx
  103432:	83 ec 1c             	sub    $0x1c,%esp
  103435:	8b 5d 08             	mov    0x8(%ebp),%ebx
  103438:	83 ec 08             	sub    $0x8,%esp
  10343b:	6a 01                	push   $0x1
  10343d:	68 80 a4 13 00       	push   $0x13a480
  103442:	e8 e9 d2 ff ff       	call   100730 <_atomic_xchg>
  103447:	83 c4 10             	add    $0x10,%esp
  10344a:	85 c0                	test   %eax,%eax
  10344c:	75 ea                	jne    103438 <kfree+0xc>
  10344e:	b8 84 e4 11 00       	mov    $0x11e484,%eax
  103453:	31 f6                	xor    %esi,%esi
  103455:	eb 11                	jmp    103468 <kfree+0x3c>
  103457:	90                   	nop
  103458:	46                   	inc    %esi
  103459:	83 c0 1c             	add    $0x1c,%eax
  10345c:	81 fe 00 10 00 00    	cmp    $0x1000,%esi
  103462:	0f 84 fb 00 00 00    	je     103563 <kfree+0x137>
  103468:	83 38 02             	cmpl   $0x2,(%eax)
  10346b:	75 eb                	jne    103458 <kfree+0x2c>
  10346d:	3b 58 08             	cmp    0x8(%eax),%ebx
  103470:	75 e6                	jne    103458 <kfree+0x2c>
  103472:	8d 04 36             	lea    (%esi,%esi,1),%eax
  103475:	89 45 e0             	mov    %eax,-0x20(%ebp)
  103478:	01 f0                	add    %esi,%eax
  10347a:	8d 04 c0             	lea    (%eax,%eax,8),%eax
  10347d:	8d 84 06 80 e4 11 00 	lea    0x11e480(%esi,%eax,1),%eax
  103484:	89 45 e4             	mov    %eax,-0x1c(%ebp)
  103487:	8b 1d d8 a4 13 00    	mov    0x13a4d8,%ebx
  10348d:	8b 7b 18             	mov    0x18(%ebx),%edi
  103490:	89 75 dc             	mov    %esi,-0x24(%ebp)
  103493:	89 c6                	mov    %eax,%esi
  103495:	eb 13                	jmp    1034aa <kfree+0x7e>
  103497:	90                   	nop
  103498:	39 3d dc a4 13 00    	cmp    %edi,0x13a4dc
  10349e:	0f 84 dd 00 00 00    	je     103581 <kfree+0x155>
  1034a4:	8b 5b 18             	mov    0x18(%ebx),%ebx
  1034a7:	8b 7f 18             	mov    0x18(%edi),%edi
  1034aa:	89 f2                	mov    %esi,%edx
  1034ac:	89 d8                	mov    %ebx,%eax
  1034ae:	e8 09 fd ff ff       	call   1031bc <free_cmp>
  1034b3:	85 c0                	test   %eax,%eax
  1034b5:	74 e1                	je     103498 <kfree+0x6c>
  1034b7:	89 fa                	mov    %edi,%edx
  1034b9:	89 f0                	mov    %esi,%eax
  1034bb:	e8 fc fc ff ff       	call   1031bc <free_cmp>
  1034c0:	85 c0                	test   %eax,%eax
  1034c2:	74 d4                	je     103498 <kfree+0x6c>
  1034c4:	8b 75 dc             	mov    -0x24(%ebp),%esi
  1034c7:	8b 55 e4             	mov    -0x1c(%ebp),%edx
  1034ca:	89 d8                	mov    %ebx,%eax
  1034cc:	e8 eb fc ff ff       	call   1031bc <free_cmp>
  1034d1:	85 c0                	test   %eax,%eax
  1034d3:	0f 84 b0 00 00 00    	je     103589 <kfree+0x15d>
  1034d9:	89 fa                	mov    %edi,%edx
  1034db:	8b 45 e4             	mov    -0x1c(%ebp),%eax
  1034de:	e8 d9 fc ff ff       	call   1031bc <free_cmp>
  1034e3:	85 c0                	test   %eax,%eax
  1034e5:	0f 84 9e 00 00 00    	je     103589 <kfree+0x15d>
  1034eb:	8b 45 e0             	mov    -0x20(%ebp),%eax
  1034ee:	01 f0                	add    %esi,%eax
  1034f0:	8d 04 c0             	lea    (%eax,%eax,8),%eax
  1034f3:	8d 84 06 80 e4 11 00 	lea    0x11e480(%esi,%eax,1),%eax
  1034fa:	89 58 14             	mov    %ebx,0x14(%eax)
  1034fd:	89 78 18             	mov    %edi,0x18(%eax)
  103500:	8b 4d e4             	mov    -0x1c(%ebp),%ecx
  103503:	89 4b 18             	mov    %ecx,0x18(%ebx)
  103506:	89 4f 14             	mov    %ecx,0x14(%edi)
  103509:	c7 40 04 01 00 00 00 	movl   $0x1,0x4(%eax)
  103510:	ff 05 e0 a4 13 00    	incl   0x13a4e0
  103516:	89 fa                	mov    %edi,%edx
  103518:	89 c8                	mov    %ecx,%eax
  10351a:	e8 49 fd ff ff       	call   103268 <free_adjcent>
  10351f:	85 c0                	test   %eax,%eax
  103521:	75 34                	jne    103557 <kfree+0x12b>
  103523:	8b 55 e4             	mov    -0x1c(%ebp),%edx
  103526:	89 d8                	mov    %ebx,%eax
  103528:	e8 3b fd ff ff       	call   103268 <free_adjcent>
  10352d:	85 c0                	test   %eax,%eax
  10352f:	74 0a                	je     10353b <kfree+0x10f>
  103531:	8b 55 e4             	mov    -0x1c(%ebp),%edx
  103534:	89 d8                	mov    %ebx,%eax
  103536:	e8 21 fe ff ff       	call   10335c <free_merge>
  10353b:	e8 ac fd ff ff       	call   1032ec <free_check>
  103540:	83 ec 08             	sub    $0x8,%esp
  103543:	6a 00                	push   $0x0
  103545:	68 80 a4 13 00       	push   $0x13a480
  10354a:	e8 e1 d1 ff ff       	call   100730 <_atomic_xchg>
  10354f:	8d 65 f4             	lea    -0xc(%ebp),%esp
  103552:	5b                   	pop    %ebx
  103553:	5e                   	pop    %esi
  103554:	5f                   	pop    %edi
  103555:	5d                   	pop    %ebp
  103556:	c3                   	ret    
  103557:	89 fa                	mov    %edi,%edx
  103559:	8b 45 e4             	mov    -0x1c(%ebp),%eax
  10355c:	e8 fb fd ff ff       	call   10335c <free_merge>
  103561:	eb c0                	jmp    103523 <kfree+0xf7>
  103563:	50                   	push   %eax
  103564:	6a 3e                	push   $0x3e
  103566:	68 70 69 10 00       	push   $0x106970
  10356b:	68 7c 69 10 00       	push   $0x10697c
  103570:	e8 bb 21 00 00       	call   105730 <printf>
  103575:	c7 04 24 01 00 00 00 	movl   $0x1,(%esp)
  10357c:	e8 8f ca ff ff       	call   100010 <_halt>
  103581:	51                   	push   %ecx
  103582:	68 e3 00 00 00       	push   $0xe3
  103587:	eb dd                	jmp    103566 <kfree+0x13a>
  103589:	52                   	push   %edx
  10358a:	68 e7 00 00 00       	push   $0xe7
  10358f:	eb d5                	jmp    103566 <kfree+0x13a>
  103591:	8d 76 00             	lea    0x0(%esi),%esi

00103594 <kalloc>:
  103594:	55                   	push   %ebp
  103595:	89 e5                	mov    %esp,%ebp
  103597:	57                   	push   %edi
  103598:	56                   	push   %esi
  103599:	53                   	push   %ebx
  10359a:	83 ec 1c             	sub    $0x1c,%esp
  10359d:	8b 5d 08             	mov    0x8(%ebp),%ebx
  1035a0:	85 db                	test   %ebx,%ebx
  1035a2:	0f 84 8c 01 00 00    	je     103734 <kalloc+0x1a0>
  1035a8:	83 ec 08             	sub    $0x8,%esp
  1035ab:	6a 01                	push   $0x1
  1035ad:	68 80 a4 13 00       	push   $0x13a480
  1035b2:	e8 79 d1 ff ff       	call   100730 <_atomic_xchg>
  1035b7:	83 c4 10             	add    $0x10,%esp
  1035ba:	85 c0                	test   %eax,%eax
  1035bc:	75 ea                	jne    1035a8 <kalloc+0x14>
  1035be:	b8 00 04 00 00       	mov    $0x400,%eax
  1035c3:	81 fb 00 04 00 00    	cmp    $0x400,%ebx
  1035c9:	76 07                	jbe    1035d2 <kalloc+0x3e>
  1035cb:	90                   	nop
  1035cc:	01 c0                	add    %eax,%eax
  1035ce:	39 c3                	cmp    %eax,%ebx
  1035d0:	77 fa                	ja     1035cc <kalloc+0x38>
  1035d2:	8b 3d d8 a4 13 00    	mov    0x13a4d8,%edi
  1035d8:	8b 5f 18             	mov    0x18(%edi),%ebx
  1035db:	8b 0d dc a4 13 00    	mov    0x13a4dc,%ecx
  1035e1:	39 cb                	cmp    %ecx,%ebx
  1035e3:	74 23                	je     103608 <kalloc+0x74>
  1035e5:	8b 53 08             	mov    0x8(%ebx),%edx
  1035e8:	39 d0                	cmp    %edx,%eax
  1035ea:	77 0b                	ja     1035f7 <kalloc+0x63>
  1035ec:	eb 3e                	jmp    10362c <kalloc+0x98>
  1035ee:	66 90                	xchg   %ax,%ax
  1035f0:	8b 53 08             	mov    0x8(%ebx),%edx
  1035f3:	39 c2                	cmp    %eax,%edx
  1035f5:	73 35                	jae    10362c <kalloc+0x98>
  1035f7:	83 7b 04 01          	cmpl   $0x1,0x4(%ebx)
  1035fb:	0f 85 42 01 00 00    	jne    103743 <kalloc+0x1af>
  103601:	8b 5b 18             	mov    0x18(%ebx),%ebx
  103604:	39 cb                	cmp    %ecx,%ebx
  103606:	75 e8                	jne    1035f0 <kalloc+0x5c>
  103608:	52                   	push   %edx
  103609:	68 17 01 00 00       	push   $0x117
  10360e:	68 70 69 10 00       	push   $0x106970
  103613:	68 7c 69 10 00       	push   $0x10697c
  103618:	e8 13 21 00 00       	call   105730 <printf>
  10361d:	c7 04 24 01 00 00 00 	movl   $0x1,(%esp)
  103624:	e8 e7 c9 ff ff       	call   100010 <_halt>
  103629:	8d 76 00             	lea    0x0(%esi),%esi
  10362c:	8d 0c 00             	lea    (%eax,%eax,1),%ecx
  10362f:	39 ca                	cmp    %ecx,%edx
  103631:	73 69                	jae    10369c <kalloc+0x108>
  103633:	39 df                	cmp    %ebx,%edi
  103635:	0f 84 29 01 00 00    	je     103764 <kalloc+0x1d0>
  10363b:	83 7b 04 01          	cmpl   $0x1,0x4(%ebx)
  10363f:	0f 85 14 01 00 00    	jne    103759 <kalloc+0x1c5>
  103645:	8b 53 14             	mov    0x14(%ebx),%edx
  103648:	8b 43 18             	mov    0x18(%ebx),%eax
  10364b:	89 42 18             	mov    %eax,0x18(%edx)
  10364e:	89 50 14             	mov    %edx,0x14(%eax)
  103651:	c7 43 14 00 00 00 00 	movl   $0x0,0x14(%ebx)
  103658:	c7 43 18 00 00 00 00 	movl   $0x0,0x18(%ebx)
  10365f:	c7 43 04 02 00 00 00 	movl   $0x2,0x4(%ebx)
  103666:	ff 0d e0 a4 13 00    	decl   0x13a4e0
  10366c:	e8 7b fc ff ff       	call   1032ec <free_check>
  103671:	8b 73 0c             	mov    0xc(%ebx),%esi
  103674:	85 f6                	test   %esi,%esi
  103676:	0f 84 d2 00 00 00    	je     10374e <kalloc+0x1ba>
  10367c:	83 ec 08             	sub    $0x8,%esp
  10367f:	6a 00                	push   $0x0
  103681:	68 80 a4 13 00       	push   $0x13a480
  103686:	e8 a5 d0 ff ff       	call   100730 <_atomic_xchg>
  10368b:	8b 43 0c             	mov    0xc(%ebx),%eax
  10368e:	83 c4 10             	add    $0x10,%esp
  103691:	8d 65 f4             	lea    -0xc(%ebp),%esp
  103694:	5b                   	pop    %ebx
  103695:	5e                   	pop    %esi
  103696:	5f                   	pop    %edi
  103697:	5d                   	pop    %ebp
  103698:	c3                   	ret    
  103699:	8d 76 00             	lea    0x0(%esi),%esi
  10369c:	be 84 e4 11 00       	mov    $0x11e484,%esi
  1036a1:	31 c9                	xor    %ecx,%ecx
  1036a3:	eb 13                	jmp    1036b8 <kalloc+0x124>
  1036a5:	8d 76 00             	lea    0x0(%esi),%esi
  1036a8:	41                   	inc    %ecx
  1036a9:	83 c6 1c             	add    $0x1c,%esi
  1036ac:	81 f9 00 10 00 00    	cmp    $0x1000,%ecx
  1036b2:	0f 84 83 00 00 00    	je     10373b <kalloc+0x1a7>
  1036b8:	83 3e 00             	cmpl   $0x0,(%esi)
  1036bb:	75 eb                	jne    1036a8 <kalloc+0x114>
  1036bd:	83 7b 04 01          	cmpl   $0x1,0x4(%ebx)
  1036c1:	0f 85 a8 00 00 00    	jne    10376f <kalloc+0x1db>
  1036c7:	8d 34 09             	lea    (%ecx,%ecx,1),%esi
  1036ca:	01 ce                	add    %ecx,%esi
  1036cc:	8d 34 f6             	lea    (%esi,%esi,8),%esi
  1036cf:	01 ce                	add    %ecx,%esi
  1036d1:	89 75 e4             	mov    %esi,-0x1c(%ebp)
  1036d4:	81 c6 80 e4 11 00    	add    $0x11e480,%esi
  1036da:	89 75 e0             	mov    %esi,-0x20(%ebp)
  1036dd:	8b 75 e4             	mov    -0x1c(%ebp),%esi
  1036e0:	39 8e 80 e4 11 00    	cmp    %ecx,0x11e480(%esi)
  1036e6:	0f 85 8e 00 00 00    	jne    10377a <kalloc+0x1e6>
  1036ec:	8b 75 e0             	mov    -0x20(%ebp),%esi
  1036ef:	89 5e 14             	mov    %ebx,0x14(%esi)
  1036f2:	8b 4b 18             	mov    0x18(%ebx),%ecx
  1036f5:	89 4e 18             	mov    %ecx,0x18(%esi)
  1036f8:	8b 4b 18             	mov    0x18(%ebx),%ecx
  1036fb:	89 71 14             	mov    %esi,0x14(%ecx)
  1036fe:	89 73 18             	mov    %esi,0x18(%ebx)
  103701:	8b 4b 0c             	mov    0xc(%ebx),%ecx
  103704:	01 c1                	add    %eax,%ecx
  103706:	89 4e 0c             	mov    %ecx,0xc(%esi)
  103709:	8b 4b 10             	mov    0x10(%ebx),%ecx
  10370c:	89 4e 10             	mov    %ecx,0x10(%esi)
  10370f:	29 c2                	sub    %eax,%edx
  103711:	89 56 08             	mov    %edx,0x8(%esi)
  103714:	8b 53 0c             	mov    0xc(%ebx),%edx
  103717:	01 c2                	add    %eax,%edx
  103719:	89 53 10             	mov    %edx,0x10(%ebx)
  10371c:	89 43 08             	mov    %eax,0x8(%ebx)
  10371f:	c7 46 04 01 00 00 00 	movl   $0x1,0x4(%esi)
  103726:	ff 05 e0 a4 13 00    	incl   0x13a4e0
  10372c:	e9 02 ff ff ff       	jmp    103633 <kalloc+0x9f>
  103731:	8d 76 00             	lea    0x0(%esi),%esi
  103734:	31 c0                	xor    %eax,%eax
  103736:	e9 56 ff ff ff       	jmp    103691 <kalloc+0xfd>
  10373b:	50                   	push   %eax
  10373c:	6a 2f                	push   $0x2f
  10373e:	e9 cb fe ff ff       	jmp    10360e <kalloc+0x7a>
  103743:	50                   	push   %eax
  103744:	68 14 01 00 00       	push   $0x114
  103749:	e9 c0 fe ff ff       	jmp    10360e <kalloc+0x7a>
  10374e:	51                   	push   %ecx
  10374f:	68 35 01 00 00       	push   $0x135
  103754:	e9 b5 fe ff ff       	jmp    10360e <kalloc+0x7a>
  103759:	57                   	push   %edi
  10375a:	68 fd 00 00 00       	push   $0xfd
  10375f:	e9 aa fe ff ff       	jmp    10360e <kalloc+0x7a>
  103764:	50                   	push   %eax
  103765:	68 fb 00 00 00       	push   $0xfb
  10376a:	e9 9f fe ff ff       	jmp    10360e <kalloc+0x7a>
  10376f:	50                   	push   %eax
  103770:	68 8e 00 00 00       	push   $0x8e
  103775:	e9 94 fe ff ff       	jmp    10360e <kalloc+0x7a>
  10377a:	50                   	push   %eax
  10377b:	68 8f 00 00 00       	push   $0x8f
  103780:	e9 89 fe ff ff       	jmp    10360e <kalloc+0x7a>
  103785:	8d 76 00             	lea    0x0(%esi),%esi

00103788 <extern_free_print>:
  103788:	55                   	push   %ebp
  103789:	89 e5                	mov    %esp,%ebp
  10378b:	53                   	push   %ebx
  10378c:	53                   	push   %ebx
  10378d:	8d 76 00             	lea    0x0(%esi),%esi
  103790:	83 ec 08             	sub    $0x8,%esp
  103793:	6a 01                	push   $0x1
  103795:	68 80 a4 13 00       	push   $0x13a480
  10379a:	e8 91 cf ff ff       	call   100730 <_atomic_xchg>
  10379f:	83 c4 10             	add    $0x10,%esp
  1037a2:	85 c0                	test   %eax,%eax
  1037a4:	75 ea                	jne    103790 <extern_free_print+0x8>
  1037a6:	e8 75 cf ff ff       	call   100720 <_cpu>
  1037ab:	51                   	push   %ecx
  1037ac:	ff 75 08             	pushl  0x8(%ebp)
  1037af:	50                   	push   %eax
  1037b0:	68 95 69 10 00       	push   $0x106995
  1037b5:	e8 76 1f 00 00       	call   105730 <printf>
  1037ba:	a1 d8 a4 13 00       	mov    0x13a4d8,%eax
  1037bf:	8b 58 18             	mov    0x18(%eax),%ebx
  1037c2:	c7 04 24 ac 69 10 00 	movl   $0x1069ac,(%esp)
  1037c9:	e8 62 1f 00 00       	call   105730 <printf>
  1037ce:	c7 04 24 dc 69 10 00 	movl   $0x1069dc,(%esp)
  1037d5:	e8 56 1f 00 00       	call   105730 <printf>
  1037da:	c7 04 24 ac 69 10 00 	movl   $0x1069ac,(%esp)
  1037e1:	e8 4a 1f 00 00       	call   105730 <printf>
  1037e6:	83 c4 10             	add    $0x10,%esp
  1037e9:	3b 1d dc a4 13 00    	cmp    0x13a4dc,%ebx
  1037ef:	74 32                	je     103823 <extern_free_print+0x9b>
  1037f1:	8d 76 00             	lea    0x0(%esi),%esi
  1037f4:	83 ec 08             	sub    $0x8,%esp
  1037f7:	8b 43 18             	mov    0x18(%ebx),%eax
  1037fa:	ff 30                	pushl  (%eax)
  1037fc:	ff 73 0c             	pushl  0xc(%ebx)
  1037ff:	8b 43 08             	mov    0x8(%ebx),%eax
  103802:	c1 e8 0a             	shr    $0xa,%eax
  103805:	50                   	push   %eax
  103806:	ff 73 04             	pushl  0x4(%ebx)
  103809:	ff 33                	pushl  (%ebx)
  10380b:	68 0c 6a 10 00       	push   $0x106a0c
  103810:	e8 1b 1f 00 00       	call   105730 <printf>
  103815:	8b 5b 18             	mov    0x18(%ebx),%ebx
  103818:	83 c4 20             	add    $0x20,%esp
  10381b:	3b 1d dc a4 13 00    	cmp    0x13a4dc,%ebx
  103821:	75 d1                	jne    1037f4 <extern_free_print+0x6c>
  103823:	83 ec 0c             	sub    $0xc,%esp
  103826:	68 2c 6a 10 00       	push   $0x106a2c
  10382b:	e8 00 1f 00 00       	call   105730 <printf>
  103830:	58                   	pop    %eax
  103831:	5a                   	pop    %edx
  103832:	6a 00                	push   $0x0
  103834:	68 80 a4 13 00       	push   $0x13a480
  103839:	e8 f2 ce ff ff       	call   100730 <_atomic_xchg>
  10383e:	83 c4 10             	add    $0x10,%esp
  103841:	8b 5d fc             	mov    -0x4(%ebp),%ebx
  103844:	c9                   	leave  
  103845:	c3                   	ret    
  103846:	66 90                	xchg   %ax,%ax

00103848 <kmt_context_switch>:
  103848:	55                   	push   %ebp
  103849:	89 e5                	mov    %esp,%ebp
  10384b:	53                   	push   %ebx
  10384c:	50                   	push   %eax
  10384d:	e8 ce ce ff ff       	call   100720 <_cpu>
  103852:	8b 04 85 c0 5b 11 00 	mov    0x115bc0(,%eax,4),%eax
  103859:	85 c0                	test   %eax,%eax
  10385b:	0f 84 8a 00 00 00    	je     1038eb <kmt_context_switch+0xa3>
  103861:	e8 ba ce ff ff       	call   100720 <_cpu>
  103866:	8b 04 85 c0 5b 11 00 	mov    0x115bc0(,%eax,4),%eax
  10386d:	83 78 24 03          	cmpl   $0x3,0x24(%eax)
  103871:	75 78                	jne    1038eb <kmt_context_switch+0xa3>
  103873:	e8 a8 ce ff ff       	call   100720 <_cpu>
  103878:	8b 04 85 c0 5b 11 00 	mov    0x115bc0(,%eax,4),%eax
  10387f:	c7 40 24 02 00 00 00 	movl   $0x2,0x24(%eax)
  103886:	e8 95 ce ff ff       	call   100720 <_cpu>
  10388b:	8b 1c 85 c0 5b 11 00 	mov    0x115bc0(,%eax,4),%ebx
  103892:	85 db                	test   %ebx,%ebx
  103894:	75 65                	jne    1038fb <kmt_context_switch+0xb3>
  103896:	66 90                	xchg   %ax,%ax
  103898:	e8 83 ce ff ff       	call   100720 <_cpu>
  10389d:	8b 15 e0 5b 11 00    	mov    0x115be0,%edx
  1038a3:	89 14 85 c0 5b 11 00 	mov    %edx,0x115bc0(,%eax,4)
  1038aa:	eb 1b                	jmp    1038c7 <kmt_context_switch+0x7f>
  1038ac:	e8 6f ce ff ff       	call   100720 <_cpu>
  1038b1:	8b 1c 85 c0 5b 11 00 	mov    0x115bc0(,%eax,4),%ebx
  1038b8:	e8 63 ce ff ff       	call   100720 <_cpu>
  1038bd:	8b 53 74             	mov    0x74(%ebx),%edx
  1038c0:	89 14 85 c0 5b 11 00 	mov    %edx,0x115bc0(,%eax,4)
  1038c7:	e8 54 ce ff ff       	call   100720 <_cpu>
  1038cc:	8b 04 85 c0 5b 11 00 	mov    0x115bc0(,%eax,4),%eax
  1038d3:	83 78 24 01          	cmpl   $0x1,0x24(%eax)
  1038d7:	74 37                	je     103910 <kmt_context_switch+0xc8>
  1038d9:	e8 42 ce ff ff       	call   100720 <_cpu>
  1038de:	8b 04 85 c0 5b 11 00 	mov    0x115bc0(,%eax,4),%eax
  1038e5:	83 78 24 02          	cmpl   $0x2,0x24(%eax)
  1038e9:	74 25                	je     103910 <kmt_context_switch+0xc8>
  1038eb:	e8 30 ce ff ff       	call   100720 <_cpu>
  1038f0:	8b 1c 85 c0 5b 11 00 	mov    0x115bc0(,%eax,4),%ebx
  1038f7:	85 db                	test   %ebx,%ebx
  1038f9:	74 9d                	je     103898 <kmt_context_switch+0x50>
  1038fb:	e8 20 ce ff ff       	call   100720 <_cpu>
  103900:	8b 04 85 c0 5b 11 00 	mov    0x115bc0(,%eax,4),%eax
  103907:	8b 48 74             	mov    0x74(%eax),%ecx
  10390a:	85 c9                	test   %ecx,%ecx
  10390c:	75 9e                	jne    1038ac <kmt_context_switch+0x64>
  10390e:	eb 88                	jmp    103898 <kmt_context_switch+0x50>
  103910:	e8 0b ce ff ff       	call   100720 <_cpu>
  103915:	8b 04 85 c0 5b 11 00 	mov    0x115bc0(,%eax,4),%eax
  10391c:	c7 40 24 03 00 00 00 	movl   $0x3,0x24(%eax)
  103923:	e8 f8 cd ff ff       	call   100720 <_cpu>
  103928:	8b 04 85 c0 5b 11 00 	mov    0x115bc0(,%eax,4),%eax
  10392f:	83 c0 28             	add    $0x28,%eax
  103932:	5a                   	pop    %edx
  103933:	5b                   	pop    %ebx
  103934:	5d                   	pop    %ebp
  103935:	c3                   	ret    
  103936:	66 90                	xchg   %ax,%ax

00103938 <task_wait>:
  103938:	55                   	push   %ebp
  103939:	89 e5                	mov    %esp,%ebp
  10393b:	83 ec 18             	sub    $0x18,%esp
  10393e:	66 90                	xchg   %ax,%ax
  103940:	c7 45 f0 00 00 00 00 	movl   $0x0,-0x10(%ebp)
  103947:	8b 45 f0             	mov    -0x10(%ebp),%eax
  10394a:	3d e7 03 00 00       	cmp    $0x3e7,%eax
  10394f:	7f 14                	jg     103965 <task_wait+0x2d>
  103951:	8d 76 00             	lea    0x0(%esi),%esi
  103954:	8b 45 f0             	mov    -0x10(%ebp),%eax
  103957:	40                   	inc    %eax
  103958:	89 45 f0             	mov    %eax,-0x10(%ebp)
  10395b:	8b 45 f0             	mov    -0x10(%ebp),%eax
  10395e:	3d e7 03 00 00       	cmp    $0x3e7,%eax
  103963:	7e ef                	jle    103954 <task_wait+0x1c>
  103965:	e8 b6 cd ff ff       	call   100720 <_cpu>
  10396a:	83 ec 08             	sub    $0x8,%esp
  10396d:	50                   	push   %eax
  10396e:	68 5c 6a 10 00       	push   $0x106a5c
  103973:	e8 b8 1d 00 00       	call   105730 <printf>
  103978:	c7 45 f4 00 00 00 00 	movl   $0x0,-0xc(%ebp)
  10397f:	8b 45 f4             	mov    -0xc(%ebp),%eax
  103982:	83 c4 10             	add    $0x10,%esp
  103985:	3d e7 03 00 00       	cmp    $0x3e7,%eax
  10398a:	7f 11                	jg     10399d <task_wait+0x65>
  10398c:	8b 45 f4             	mov    -0xc(%ebp),%eax
  10398f:	40                   	inc    %eax
  103990:	89 45 f4             	mov    %eax,-0xc(%ebp)
  103993:	8b 45 f4             	mov    -0xc(%ebp),%eax
  103996:	3d e7 03 00 00       	cmp    $0x3e7,%eax
  10399b:	7e ef                	jle    10398c <task_wait+0x54>
  10399d:	e8 9a e3 ff ff       	call   101d3c <_yield>
  1039a2:	eb 9c                	jmp    103940 <task_wait+0x8>

001039a4 <kmt_teardown>:
  1039a4:	55                   	push   %ebp
  1039a5:	89 e5                	mov    %esp,%ebp
  1039a7:	83 ec 10             	sub    $0x10,%esp
  1039aa:	68 30 6c 10 00       	push   $0x106c30
  1039af:	68 65 6a 10 00       	push   $0x106a65
  1039b4:	e8 77 1d 00 00       	call   105730 <printf>
  1039b9:	83 c4 0c             	add    $0xc,%esp
  1039bc:	6a 5a                	push   $0x5a
  1039be:	68 77 6a 10 00       	push   $0x106a77
  1039c3:	68 7c 69 10 00       	push   $0x10697c
  1039c8:	e8 63 1d 00 00       	call   105730 <printf>
  1039cd:	c7 04 24 01 00 00 00 	movl   $0x1,(%esp)
  1039d4:	e8 37 c6 ff ff       	call   100010 <_halt>
  1039d9:	8d 76 00             	lea    0x0(%esi),%esi

001039dc <kmt_spin_init>:
  1039dc:	55                   	push   %ebp
  1039dd:	89 e5                	mov    %esp,%ebp
  1039df:	53                   	push   %ebx
  1039e0:	83 ec 0c             	sub    $0xc,%esp
  1039e3:	8b 5d 08             	mov    0x8(%ebp),%ebx
  1039e6:	ff 75 0c             	pushl  0xc(%ebp)
  1039e9:	53                   	push   %ebx
  1039ea:	e8 99 20 00 00       	call   105a88 <strcpy>
  1039ef:	c7 43 20 00 00 00 00 	movl   $0x0,0x20(%ebx)
  1039f6:	c7 43 24 ff ff ff ff 	movl   $0xffffffff,0x24(%ebx)
  1039fd:	83 c4 10             	add    $0x10,%esp
  103a00:	89 5d 0c             	mov    %ebx,0xc(%ebp)
  103a03:	c7 45 08 86 6a 10 00 	movl   $0x106a86,0x8(%ebp)
  103a0a:	8b 5d fc             	mov    -0x4(%ebp),%ebx
  103a0d:	c9                   	leave  
  103a0e:	e9 1d 1d 00 00       	jmp    105730 <printf>
  103a13:	90                   	nop

00103a14 <kmt_sem_init>:
  103a14:	55                   	push   %ebp
  103a15:	89 e5                	mov    %esp,%ebp
  103a17:	57                   	push   %edi
  103a18:	56                   	push   %esi
  103a19:	53                   	push   %ebx
  103a1a:	83 ec 14             	sub    $0x14,%esp
  103a1d:	8b 5d 08             	mov    0x8(%ebp),%ebx
  103a20:	8b 7d 0c             	mov    0xc(%ebp),%edi
  103a23:	8b 75 10             	mov    0x10(%ebp),%esi
  103a26:	57                   	push   %edi
  103a27:	53                   	push   %ebx
  103a28:	e8 5b 20 00 00       	call   105a88 <strcpy>
  103a2d:	89 73 20             	mov    %esi,0x20(%ebx)
  103a30:	8d 73 24             	lea    0x24(%ebx),%esi
  103a33:	58                   	pop    %eax
  103a34:	5a                   	pop    %edx
  103a35:	57                   	push   %edi
  103a36:	56                   	push   %esi
  103a37:	e8 4c 20 00 00       	call   105a88 <strcpy>
  103a3c:	c7 43 44 00 00 00 00 	movl   $0x0,0x44(%ebx)
  103a43:	c7 43 48 ff ff ff ff 	movl   $0xffffffff,0x48(%ebx)
  103a4a:	59                   	pop    %ecx
  103a4b:	5f                   	pop    %edi
  103a4c:	56                   	push   %esi
  103a4d:	68 86 6a 10 00       	push   $0x106a86
  103a52:	e8 d9 1c 00 00       	call   105730 <printf>
  103a57:	c7 43 4c 00 00 00 00 	movl   $0x0,0x4c(%ebx)
  103a5e:	83 c4 10             	add    $0x10,%esp
  103a61:	89 5d 0c             	mov    %ebx,0xc(%ebp)
  103a64:	c7 45 08 9f 6a 10 00 	movl   $0x106a9f,0x8(%ebp)
  103a6b:	8d 65 f4             	lea    -0xc(%ebp),%esp
  103a6e:	5b                   	pop    %ebx
  103a6f:	5e                   	pop    %esi
  103a70:	5f                   	pop    %edi
  103a71:	5d                   	pop    %ebp
  103a72:	e9 b9 1c 00 00       	jmp    105730 <printf>
  103a77:	90                   	nop

00103a78 <kmt_context_save>:
  103a78:	55                   	push   %ebp
  103a79:	89 e5                	mov    %esp,%ebp
  103a7b:	53                   	push   %ebx
  103a7c:	51                   	push   %ecx
  103a7d:	8b 5d 18             	mov    0x18(%ebp),%ebx
  103a80:	e8 9b cc ff ff       	call   100720 <_cpu>
  103a85:	8b 04 85 c0 5b 11 00 	mov    0x115bc0(,%eax,4),%eax
  103a8c:	85 c0                	test   %eax,%eax
  103a8e:	74 1d                	je     103aad <kmt_context_save+0x35>
  103a90:	e8 8b cc ff ff       	call   100720 <_cpu>
  103a95:	8b 14 85 c0 5b 11 00 	mov    0x115bc0(,%eax,4),%edx
  103a9c:	31 c0                	xor    %eax,%eax
  103a9e:	8b 0c 03             	mov    (%ebx,%eax,1),%ecx
  103aa1:	89 4c 02 28          	mov    %ecx,0x28(%edx,%eax,1)
  103aa5:	83 c0 04             	add    $0x4,%eax
  103aa8:	83 f8 44             	cmp    $0x44,%eax
  103aab:	72 f1                	jb     103a9e <kmt_context_save+0x26>
  103aad:	31 c0                	xor    %eax,%eax
  103aaf:	5a                   	pop    %edx
  103ab0:	5b                   	pop    %ebx
  103ab1:	5d                   	pop    %ebp
  103ab2:	c3                   	ret    
  103ab3:	90                   	nop

00103ab4 <pushcli>:
  103ab4:	55                   	push   %ebp
  103ab5:	89 e5                	mov    %esp,%ebp
  103ab7:	53                   	push   %ebx
  103ab8:	83 ec 14             	sub    $0x14,%esp
  103abb:	fa                   	cli    
  103abc:	e8 5f cc ff ff       	call   100720 <_cpu>
  103ac1:	8b 04 85 a0 5b 11 00 	mov    0x115ba0(,%eax,4),%eax
  103ac8:	85 c0                	test   %eax,%eax
  103aca:	75 1a                	jne    103ae6 <pushcli+0x32>
  103acc:	9c                   	pushf  
  103acd:	58                   	pop    %eax
  103ace:	89 45 f4             	mov    %eax,-0xc(%ebp)
  103ad1:	8b 5d f4             	mov    -0xc(%ebp),%ebx
  103ad4:	e8 47 cc ff ff       	call   100720 <_cpu>
  103ad9:	81 e3 00 02 00 00    	and    $0x200,%ebx
  103adf:	89 1c 85 80 5b 11 00 	mov    %ebx,0x115b80(,%eax,4)
  103ae6:	e8 35 cc ff ff       	call   100720 <_cpu>
  103aeb:	8b 14 85 a0 5b 11 00 	mov    0x115ba0(,%eax,4),%edx
  103af2:	42                   	inc    %edx
  103af3:	89 14 85 a0 5b 11 00 	mov    %edx,0x115ba0(,%eax,4)
  103afa:	83 c4 14             	add    $0x14,%esp
  103afd:	5b                   	pop    %ebx
  103afe:	5d                   	pop    %ebp
  103aff:	c3                   	ret    

00103b00 <kmt_spin_lock>:
  103b00:	55                   	push   %ebp
  103b01:	89 e5                	mov    %esp,%ebp
  103b03:	56                   	push   %esi
  103b04:	53                   	push   %ebx
  103b05:	8b 75 08             	mov    0x8(%ebp),%esi
  103b08:	8b 46 20             	mov    0x20(%esi),%eax
  103b0b:	85 c0                	test   %eax,%eax
  103b0d:	74 0c                	je     103b1b <kmt_spin_lock+0x1b>
  103b0f:	8b 5e 24             	mov    0x24(%esi),%ebx
  103b12:	e8 09 cc ff ff       	call   100720 <_cpu>
  103b17:	39 c3                	cmp    %eax,%ebx
  103b19:	74 31                	je     103b4c <kmt_spin_lock+0x4c>
  103b1b:	e8 94 ff ff ff       	call   103ab4 <pushcli>
  103b20:	8d 5e 20             	lea    0x20(%esi),%ebx
  103b23:	90                   	nop
  103b24:	83 ec 08             	sub    $0x8,%esp
  103b27:	6a 01                	push   $0x1
  103b29:	53                   	push   %ebx
  103b2a:	e8 01 cc ff ff       	call   100730 <_atomic_xchg>
  103b2f:	83 c4 10             	add    $0x10,%esp
  103b32:	85 c0                	test   %eax,%eax
  103b34:	75 ee                	jne    103b24 <kmt_spin_lock+0x24>
  103b36:	e8 e5 cb ff ff       	call   100720 <_cpu>
  103b3b:	89 46 24             	mov    %eax,0x24(%esi)
  103b3e:	f0 83 0c 24 00       	lock orl $0x0,(%esp)
  103b43:	8d 65 f8             	lea    -0x8(%ebp),%esp
  103b46:	5b                   	pop    %ebx
  103b47:	5e                   	pop    %esi
  103b48:	5d                   	pop    %ebp
  103b49:	c3                   	ret    
  103b4a:	66 90                	xchg   %ax,%ax
  103b4c:	83 ec 08             	sub    $0x8,%esp
  103b4f:	56                   	push   %esi
  103b50:	68 44 6b 10 00       	push   $0x106b44
  103b55:	e8 d6 1b 00 00       	call   105730 <printf>
  103b5a:	c7 04 24 01 00 00 00 	movl   $0x1,(%esp)
  103b61:	e8 aa c4 ff ff       	call   100010 <_halt>
  103b66:	66 90                	xchg   %ax,%ax

00103b68 <popcli>:
  103b68:	55                   	push   %ebp
  103b69:	89 e5                	mov    %esp,%ebp
  103b6b:	83 ec 08             	sub    $0x8,%esp
  103b6e:	e8 ad cb ff ff       	call   100720 <_cpu>
  103b73:	8b 14 85 a0 5b 11 00 	mov    0x115ba0(,%eax,4),%edx
  103b7a:	4a                   	dec    %edx
  103b7b:	89 14 85 a0 5b 11 00 	mov    %edx,0x115ba0(,%eax,4)
  103b82:	e8 99 cb ff ff       	call   100720 <_cpu>
  103b87:	8b 04 85 a0 5b 11 00 	mov    0x115ba0(,%eax,4),%eax
  103b8e:	85 c0                	test   %eax,%eax
  103b90:	74 02                	je     103b94 <popcli+0x2c>
  103b92:	c9                   	leave  
  103b93:	c3                   	ret    
  103b94:	e8 87 cb ff ff       	call   100720 <_cpu>
  103b99:	8b 04 85 80 5b 11 00 	mov    0x115b80(,%eax,4),%eax
  103ba0:	85 c0                	test   %eax,%eax
  103ba2:	74 ee                	je     103b92 <popcli+0x2a>
  103ba4:	fb                   	sti    
  103ba5:	c9                   	leave  
  103ba6:	c3                   	ret    
  103ba7:	90                   	nop

00103ba8 <kmt_spin_unlock>:
  103ba8:	55                   	push   %ebp
  103ba9:	89 e5                	mov    %esp,%ebp
  103bab:	56                   	push   %esi
  103bac:	53                   	push   %ebx
  103bad:	8b 5d 08             	mov    0x8(%ebp),%ebx
  103bb0:	8b 43 20             	mov    0x20(%ebx),%eax
  103bb3:	85 c0                	test   %eax,%eax
  103bb5:	74 0c                	je     103bc3 <kmt_spin_unlock+0x1b>
  103bb7:	8b 73 24             	mov    0x24(%ebx),%esi
  103bba:	e8 61 cb ff ff       	call   100720 <_cpu>
  103bbf:	39 c6                	cmp    %eax,%esi
  103bc1:	74 1d                	je     103be0 <kmt_spin_unlock+0x38>
  103bc3:	83 ec 08             	sub    $0x8,%esp
  103bc6:	53                   	push   %ebx
  103bc7:	68 6c 6b 10 00       	push   $0x106b6c
  103bcc:	e8 5f 1b 00 00       	call   105730 <printf>
  103bd1:	c7 04 24 01 00 00 00 	movl   $0x1,(%esp)
  103bd8:	e8 33 c4 ff ff       	call   100010 <_halt>
  103bdd:	8d 76 00             	lea    0x0(%esi),%esi
  103be0:	c7 43 24 ff ff ff ff 	movl   $0xffffffff,0x24(%ebx)
  103be7:	83 ec 08             	sub    $0x8,%esp
  103bea:	6a 00                	push   $0x0
  103bec:	83 c3 20             	add    $0x20,%ebx
  103bef:	53                   	push   %ebx
  103bf0:	e8 3b cb ff ff       	call   100730 <_atomic_xchg>
  103bf5:	e8 6e ff ff ff       	call   103b68 <popcli>
  103bfa:	f0 83 0c 24 00       	lock orl $0x0,(%esp)
  103bff:	8d 65 f8             	lea    -0x8(%ebp),%esp
  103c02:	5b                   	pop    %ebx
  103c03:	5e                   	pop    %esi
  103c04:	5d                   	pop    %ebp
  103c05:	c3                   	ret    
  103c06:	66 90                	xchg   %ax,%ax

00103c08 <kmt_create>:
  103c08:	55                   	push   %ebp
  103c09:	89 e5                	mov    %esp,%ebp
  103c0b:	56                   	push   %esi
  103c0c:	53                   	push   %ebx
  103c0d:	8b 5d 08             	mov    0x8(%ebp),%ebx
  103c10:	8d 73 04             	lea    0x4(%ebx),%esi
  103c13:	83 ec 08             	sub    $0x8,%esp
  103c16:	ff 75 0c             	pushl  0xc(%ebp)
  103c19:	56                   	push   %esi
  103c1a:	e8 69 1e 00 00       	call   105a88 <strcpy>
  103c1f:	c7 04 24 00 10 00 00 	movl   $0x1000,(%esp)
  103c26:	a1 90 80 10 00       	mov    0x108090,%eax
  103c2b:	ff 50 04             	call   *0x4(%eax)
  103c2e:	89 43 6c             	mov    %eax,0x6c(%ebx)
  103c31:	05 00 10 00 00       	add    $0x1000,%eax
  103c36:	89 43 70             	mov    %eax,0x70(%ebx)
  103c39:	ff 75 14             	pushl  0x14(%ebp)
  103c3c:	ff 75 10             	pushl  0x10(%ebp)
  103c3f:	ff 73 70             	pushl  0x70(%ebx)
  103c42:	ff 73 6c             	pushl  0x6c(%ebx)
  103c45:	e8 4a df ff ff       	call   101b94 <_kcontext>
  103c4a:	31 d2                	xor    %edx,%edx
  103c4c:	8b 0c 10             	mov    (%eax,%edx,1),%ecx
  103c4f:	89 4c 13 28          	mov    %ecx,0x28(%ebx,%edx,1)
  103c53:	83 c2 04             	add    $0x4,%edx
  103c56:	83 fa 44             	cmp    $0x44,%edx
  103c59:	72 f1                	jb     103c4c <kmt_create+0x44>
  103c5b:	c7 43 24 01 00 00 00 	movl   $0x1,0x24(%ebx)
  103c62:	83 c4 14             	add    $0x14,%esp
  103c65:	68 40 a5 13 00       	push   $0x13a540
  103c6a:	e8 91 fe ff ff       	call   103b00 <kmt_spin_lock>
  103c6f:	a1 e0 5b 11 00       	mov    0x115be0,%eax
  103c74:	89 43 74             	mov    %eax,0x74(%ebx)
  103c77:	89 1d e0 5b 11 00    	mov    %ebx,0x115be0
  103c7d:	c7 04 24 40 a5 13 00 	movl   $0x13a540,(%esp)
  103c84:	e8 1f ff ff ff       	call   103ba8 <kmt_spin_unlock>
  103c89:	58                   	pop    %eax
  103c8a:	5a                   	pop    %edx
  103c8b:	56                   	push   %esi
  103c8c:	68 bd 6a 10 00       	push   $0x106abd
  103c91:	e8 9a 1a 00 00       	call   105730 <printf>
  103c96:	31 c0                	xor    %eax,%eax
  103c98:	8d 65 f8             	lea    -0x8(%ebp),%esp
  103c9b:	5b                   	pop    %ebx
  103c9c:	5e                   	pop    %esi
  103c9d:	5d                   	pop    %ebp
  103c9e:	c3                   	ret    
  103c9f:	90                   	nop

00103ca0 <kmt_init>:
  103ca0:	55                   	push   %ebp
  103ca1:	89 e5                	mov    %esp,%ebp
  103ca3:	53                   	push   %ebx
  103ca4:	83 ec 08             	sub    $0x8,%esp
  103ca7:	68 78 3a 10 00       	push   $0x103a78
  103cac:	6a 00                	push   $0x0
  103cae:	68 00 00 00 80       	push   $0x80000000
  103cb3:	a1 e4 4e 11 00       	mov    0x114ee4,%eax
  103cb8:	ff 50 0c             	call   *0xc(%eax)
  103cbb:	83 c4 0c             	add    $0xc,%esp
  103cbe:	68 48 38 10 00       	push   $0x103848
  103cc3:	6a 00                	push   $0x0
  103cc5:	68 ff ff ff 7f       	push   $0x7fffffff
  103cca:	a1 e4 4e 11 00       	mov    0x114ee4,%eax
  103ccf:	ff 50 0c             	call   *0xc(%eax)
  103cd2:	58                   	pop    %eax
  103cd3:	5a                   	pop    %edx
  103cd4:	68 d2 6a 10 00       	push   $0x106ad2
  103cd9:	68 40 a5 13 00       	push   $0x13a540
  103cde:	e8 a5 1d 00 00       	call   105a88 <strcpy>
  103ce3:	c7 05 60 a5 13 00 00 	movl   $0x0,0x13a560
  103cea:	00 00 00 
  103ced:	c7 05 64 a5 13 00 ff 	movl   $0xffffffff,0x13a564
  103cf4:	ff ff ff 
  103cf7:	59                   	pop    %ecx
  103cf8:	5b                   	pop    %ebx
  103cf9:	68 40 a5 13 00       	push   $0x13a540
  103cfe:	68 86 6a 10 00       	push   $0x106a86
  103d03:	e8 28 1a 00 00       	call   105730 <printf>
  103d08:	58                   	pop    %eax
  103d09:	5a                   	pop    %edx
  103d0a:	68 e3 6a 10 00       	push   $0x106ae3
  103d0f:	68 00 a5 13 00       	push   $0x13a500
  103d14:	e8 6f 1d 00 00       	call   105a88 <strcpy>
  103d19:	c7 05 20 a5 13 00 00 	movl   $0x0,0x13a520
  103d20:	00 00 00 
  103d23:	c7 05 24 a5 13 00 ff 	movl   $0xffffffff,0x13a524
  103d2a:	ff ff ff 
  103d2d:	59                   	pop    %ecx
  103d2e:	5b                   	pop    %ebx
  103d2f:	68 00 a5 13 00       	push   $0x13a500
  103d34:	68 86 6a 10 00       	push   $0x106a86
  103d39:	e8 f2 19 00 00       	call   105730 <printf>
  103d3e:	83 c4 10             	add    $0x10,%esp
  103d41:	31 db                	xor    %ebx,%ebx
  103d43:	eb 23                	jmp    103d68 <kmt_init+0xc8>
  103d45:	8d 76 00             	lea    0x0(%esi),%esi
  103d48:	6a 00                	push   $0x0
  103d4a:	68 38 39 10 00       	push   $0x103938
  103d4f:	68 f7 6a 10 00       	push   $0x106af7
  103d54:	89 d8                	mov    %ebx,%eax
  103d56:	c1 e0 07             	shl    $0x7,%eax
  103d59:	05 80 57 11 00       	add    $0x115780,%eax
  103d5e:	50                   	push   %eax
  103d5f:	e8 a4 fe ff ff       	call   103c08 <kmt_create>
  103d64:	43                   	inc    %ebx
  103d65:	83 c4 10             	add    $0x10,%esp
  103d68:	e8 a7 c9 ff ff       	call   100714 <_ncpu>
  103d6d:	39 d8                	cmp    %ebx,%eax
  103d6f:	7f d7                	jg     103d48 <kmt_init+0xa8>
  103d71:	8b 5d fc             	mov    -0x4(%ebp),%ebx
  103d74:	c9                   	leave  
  103d75:	c3                   	ret    
  103d76:	66 90                	xchg   %ax,%ax

00103d78 <kmt_sem_wait>:
  103d78:	55                   	push   %ebp
  103d79:	89 e5                	mov    %esp,%ebp
  103d7b:	57                   	push   %edi
  103d7c:	56                   	push   %esi
  103d7d:	53                   	push   %ebx
  103d7e:	83 ec 18             	sub    $0x18,%esp
  103d81:	8b 5d 08             	mov    0x8(%ebp),%ebx
  103d84:	8d 73 24             	lea    0x24(%ebx),%esi
  103d87:	56                   	push   %esi
  103d88:	e8 73 fd ff ff       	call   103b00 <kmt_spin_lock>
  103d8d:	8b 43 20             	mov    0x20(%ebx),%eax
  103d90:	48                   	dec    %eax
  103d91:	89 43 20             	mov    %eax,0x20(%ebx)
  103d94:	8b 43 20             	mov    0x20(%ebx),%eax
  103d97:	83 c4 10             	add    $0x10,%esp
  103d9a:	85 c0                	test   %eax,%eax
  103d9c:	78 12                	js     103db0 <kmt_sem_wait+0x38>
  103d9e:	89 75 08             	mov    %esi,0x8(%ebp)
  103da1:	8d 65 f4             	lea    -0xc(%ebp),%esp
  103da4:	5b                   	pop    %ebx
  103da5:	5e                   	pop    %esi
  103da6:	5f                   	pop    %edi
  103da7:	5d                   	pop    %ebp
  103da8:	e9 fb fd ff ff       	jmp    103ba8 <kmt_spin_unlock>
  103dad:	8d 76 00             	lea    0x0(%esi),%esi
  103db0:	83 ec 0c             	sub    $0xc,%esp
  103db3:	68 00 a5 13 00       	push   $0x13a500
  103db8:	e8 43 fd ff ff       	call   103b00 <kmt_spin_lock>
  103dbd:	e8 5e c9 ff ff       	call   100720 <_cpu>
  103dc2:	8b 04 85 c0 5b 11 00 	mov    0x115bc0(,%eax,4),%eax
  103dc9:	c7 40 24 04 00 00 00 	movl   $0x4,0x24(%eax)
  103dd0:	e8 4b c9 ff ff       	call   100720 <_cpu>
  103dd5:	8b 3c 85 c0 5b 11 00 	mov    0x115bc0(,%eax,4),%edi
  103ddc:	c7 04 24 40 a5 13 00 	movl   $0x13a540,(%esp)
  103de3:	e8 18 fd ff ff       	call   103b00 <kmt_spin_lock>
  103de8:	8b 0d e0 5b 11 00    	mov    0x115be0,%ecx
  103dee:	83 c4 10             	add    $0x10,%esp
  103df1:	85 c9                	test   %ecx,%ecx
  103df3:	0f 84 fa 00 00 00    	je     103ef3 <kmt_sem_wait+0x17b>
  103df9:	8b 41 74             	mov    0x74(%ecx),%eax
  103dfc:	85 c0                	test   %eax,%eax
  103dfe:	0f 84 dc 00 00 00    	je     103ee0 <kmt_sem_wait+0x168>
  103e04:	39 cf                	cmp    %ecx,%edi
  103e06:	75 5a                	jne    103e62 <kmt_sem_wait+0xea>
  103e08:	a3 e0 5b 11 00       	mov    %eax,0x115be0
  103e0d:	83 ec 0c             	sub    $0xc,%esp
  103e10:	68 40 a5 13 00       	push   $0x13a540
  103e15:	e8 8e fd ff ff       	call   103ba8 <kmt_spin_unlock>
  103e1a:	e8 01 c9 ff ff       	call   100720 <_cpu>
  103e1f:	8b 04 85 c0 5b 11 00 	mov    0x115bc0(,%eax,4),%eax
  103e26:	8b 53 4c             	mov    0x4c(%ebx),%edx
  103e29:	89 50 74             	mov    %edx,0x74(%eax)
  103e2c:	e8 ef c8 ff ff       	call   100720 <_cpu>
  103e31:	8b 04 85 c0 5b 11 00 	mov    0x115bc0(,%eax,4),%eax
  103e38:	89 43 4c             	mov    %eax,0x4c(%ebx)
  103e3b:	c7 04 24 00 a5 13 00 	movl   $0x13a500,(%esp)
  103e42:	e8 61 fd ff ff       	call   103ba8 <kmt_spin_unlock>
  103e47:	89 34 24             	mov    %esi,(%esp)
  103e4a:	e8 59 fd ff ff       	call   103ba8 <kmt_spin_unlock>
  103e4f:	83 c4 10             	add    $0x10,%esp
  103e52:	8d 65 f4             	lea    -0xc(%ebp),%esp
  103e55:	5b                   	pop    %ebx
  103e56:	5e                   	pop    %esi
  103e57:	5f                   	pop    %edi
  103e58:	5d                   	pop    %ebp
  103e59:	e9 de de ff ff       	jmp    101d3c <_yield>
  103e5e:	66 90                	xchg   %ax,%ax
  103e60:	89 d0                	mov    %edx,%eax
  103e62:	39 c7                	cmp    %eax,%edi
  103e64:	74 6e                	je     103ed4 <kmt_sem_wait+0x15c>
  103e66:	8b 50 74             	mov    0x74(%eax),%edx
  103e69:	89 c1                	mov    %eax,%ecx
  103e6b:	85 d2                	test   %edx,%edx
  103e6d:	75 f1                	jne    103e60 <kmt_sem_wait+0xe8>
  103e6f:	bb ad 64 10 00       	mov    $0x1064ad,%ebx
  103e74:	b8 41 00 00 00       	mov    $0x41,%eax
  103e79:	83 ec 0c             	sub    $0xc,%esp
  103e7c:	50                   	push   %eax
  103e7d:	e8 7e c1 ff ff       	call   100000 <_putc>
  103e82:	43                   	inc    %ebx
  103e83:	0f be 03             	movsbl (%ebx),%eax
  103e86:	83 c4 10             	add    $0x10,%esp
  103e89:	84 c0                	test   %al,%al
  103e8b:	75 ec                	jne    103e79 <kmt_sem_wait+0x101>
  103e8d:	bb d8 6b 10 00       	mov    $0x106bd8,%ebx
  103e92:	b8 0a 00 00 00       	mov    $0xa,%eax
  103e97:	83 ec 0c             	sub    $0xc,%esp
  103e9a:	50                   	push   %eax
  103e9b:	e8 60 c1 ff ff       	call   100000 <_putc>
  103ea0:	43                   	inc    %ebx
  103ea1:	0f be 03             	movsbl (%ebx),%eax
  103ea4:	83 c4 10             	add    $0x10,%esp
  103ea7:	84 c0                	test   %al,%al
  103ea9:	75 ec                	jne    103e97 <kmt_sem_wait+0x11f>
  103eab:	bb 2c 6b 10 00       	mov    $0x106b2c,%ebx
  103eb0:	b8 20 00 00 00       	mov    $0x20,%eax
  103eb5:	83 ec 0c             	sub    $0xc,%esp
  103eb8:	50                   	push   %eax
  103eb9:	e8 42 c1 ff ff       	call   100000 <_putc>
  103ebe:	43                   	inc    %ebx
  103ebf:	0f be 03             	movsbl (%ebx),%eax
  103ec2:	83 c4 10             	add    $0x10,%esp
  103ec5:	84 c0                	test   %al,%al
  103ec7:	75 ec                	jne    103eb5 <kmt_sem_wait+0x13d>
  103ec9:	83 ec 0c             	sub    $0xc,%esp
  103ecc:	6a 01                	push   $0x1
  103ece:	e8 3d c1 ff ff       	call   100010 <_halt>
  103ed3:	90                   	nop
  103ed4:	8b 47 74             	mov    0x74(%edi),%eax
  103ed7:	89 41 74             	mov    %eax,0x74(%ecx)
  103eda:	e9 2e ff ff ff       	jmp    103e0d <kmt_sem_wait+0x95>
  103edf:	90                   	nop
  103ee0:	39 cf                	cmp    %ecx,%edi
  103ee2:	75 6e                	jne    103f52 <kmt_sem_wait+0x1da>
  103ee4:	c7 05 e0 5b 11 00 00 	movl   $0x0,0x115be0
  103eeb:	00 00 00 
  103eee:	e9 1a ff ff ff       	jmp    103e0d <kmt_sem_wait+0x95>
  103ef3:	bb ad 64 10 00       	mov    $0x1064ad,%ebx
  103ef8:	b8 41 00 00 00       	mov    $0x41,%eax
  103efd:	83 ec 0c             	sub    $0xc,%esp
  103f00:	50                   	push   %eax
  103f01:	e8 fa c0 ff ff       	call   100000 <_putc>
  103f06:	43                   	inc    %ebx
  103f07:	0f be 03             	movsbl (%ebx),%eax
  103f0a:	83 c4 10             	add    $0x10,%esp
  103f0d:	84 c0                	test   %al,%al
  103f0f:	75 ec                	jne    103efd <kmt_sem_wait+0x185>
  103f11:	bb 98 6b 10 00       	mov    $0x106b98,%ebx
  103f16:	b8 0a 00 00 00       	mov    $0xa,%eax
  103f1b:	83 ec 0c             	sub    $0xc,%esp
  103f1e:	50                   	push   %eax
  103f1f:	e8 dc c0 ff ff       	call   100000 <_putc>
  103f24:	43                   	inc    %ebx
  103f25:	0f be 03             	movsbl (%ebx),%eax
  103f28:	83 c4 10             	add    $0x10,%esp
  103f2b:	84 c0                	test   %al,%al
  103f2d:	75 ec                	jne    103f1b <kmt_sem_wait+0x1a3>
  103f2f:	bb fc 6a 10 00       	mov    $0x106afc,%ebx
  103f34:	b8 20 00 00 00       	mov    $0x20,%eax
  103f39:	83 ec 0c             	sub    $0xc,%esp
  103f3c:	50                   	push   %eax
  103f3d:	e8 be c0 ff ff       	call   100000 <_putc>
  103f42:	43                   	inc    %ebx
  103f43:	0f be 03             	movsbl (%ebx),%eax
  103f46:	83 c4 10             	add    $0x10,%esp
  103f49:	84 c0                	test   %al,%al
  103f4b:	75 ec                	jne    103f39 <kmt_sem_wait+0x1c1>
  103f4d:	e9 77 ff ff ff       	jmp    103ec9 <kmt_sem_wait+0x151>
  103f52:	bb ad 64 10 00       	mov    $0x1064ad,%ebx
  103f57:	b8 41 00 00 00       	mov    $0x41,%eax
  103f5c:	83 ec 0c             	sub    $0xc,%esp
  103f5f:	50                   	push   %eax
  103f60:	e8 9b c0 ff ff       	call   100000 <_putc>
  103f65:	43                   	inc    %ebx
  103f66:	0f be 03             	movsbl (%ebx),%eax
  103f69:	83 c4 10             	add    $0x10,%esp
  103f6c:	84 c0                	test   %al,%al
  103f6e:	75 ec                	jne    103f5c <kmt_sem_wait+0x1e4>
  103f70:	bb b8 6b 10 00       	mov    $0x106bb8,%ebx
  103f75:	b8 0a 00 00 00       	mov    $0xa,%eax
  103f7a:	83 ec 0c             	sub    $0xc,%esp
  103f7d:	50                   	push   %eax
  103f7e:	e8 7d c0 ff ff       	call   100000 <_putc>
  103f83:	43                   	inc    %ebx
  103f84:	0f be 03             	movsbl (%ebx),%eax
  103f87:	83 c4 10             	add    $0x10,%esp
  103f8a:	84 c0                	test   %al,%al
  103f8c:	75 ec                	jne    103f7a <kmt_sem_wait+0x202>
  103f8e:	bb 14 6b 10 00       	mov    $0x106b14,%ebx
  103f93:	b8 20 00 00 00       	mov    $0x20,%eax
  103f98:	83 ec 0c             	sub    $0xc,%esp
  103f9b:	50                   	push   %eax
  103f9c:	e8 5f c0 ff ff       	call   100000 <_putc>
  103fa1:	43                   	inc    %ebx
  103fa2:	0f be 03             	movsbl (%ebx),%eax
  103fa5:	83 c4 10             	add    $0x10,%esp
  103fa8:	84 c0                	test   %al,%al
  103faa:	75 ec                	jne    103f98 <kmt_sem_wait+0x220>
  103fac:	e9 18 ff ff ff       	jmp    103ec9 <kmt_sem_wait+0x151>
  103fb1:	8d 76 00             	lea    0x0(%esi),%esi

00103fb4 <kmt_sem_signal>:
  103fb4:	55                   	push   %ebp
  103fb5:	89 e5                	mov    %esp,%ebp
  103fb7:	57                   	push   %edi
  103fb8:	56                   	push   %esi
  103fb9:	53                   	push   %ebx
  103fba:	83 ec 18             	sub    $0x18,%esp
  103fbd:	8b 5d 08             	mov    0x8(%ebp),%ebx
  103fc0:	8d 73 24             	lea    0x24(%ebx),%esi
  103fc3:	56                   	push   %esi
  103fc4:	e8 37 fb ff ff       	call   103b00 <kmt_spin_lock>
  103fc9:	8b 43 20             	mov    0x20(%ebx),%eax
  103fcc:	40                   	inc    %eax
  103fcd:	89 43 20             	mov    %eax,0x20(%ebx)
  103fd0:	8b 43 20             	mov    0x20(%ebx),%eax
  103fd3:	83 c4 10             	add    $0x10,%esp
  103fd6:	85 c0                	test   %eax,%eax
  103fd8:	7e 12                	jle    103fec <kmt_sem_signal+0x38>
  103fda:	89 75 08             	mov    %esi,0x8(%ebp)
  103fdd:	8d 65 f4             	lea    -0xc(%ebp),%esp
  103fe0:	5b                   	pop    %ebx
  103fe1:	5e                   	pop    %esi
  103fe2:	5f                   	pop    %edi
  103fe3:	5d                   	pop    %ebp
  103fe4:	e9 bf fb ff ff       	jmp    103ba8 <kmt_spin_unlock>
  103fe9:	8d 76 00             	lea    0x0(%esi),%esi
  103fec:	8b 7b 4c             	mov    0x4c(%ebx),%edi
  103fef:	85 ff                	test   %edi,%edi
  103ff1:	74 46                	je     104039 <kmt_sem_signal+0x85>
  103ff3:	8b 47 74             	mov    0x74(%edi),%eax
  103ff6:	89 43 4c             	mov    %eax,0x4c(%ebx)
  103ff9:	c7 47 24 02 00 00 00 	movl   $0x2,0x24(%edi)
  104000:	83 ec 0c             	sub    $0xc,%esp
  104003:	68 40 a5 13 00       	push   $0x13a540
  104008:	e8 f3 fa ff ff       	call   103b00 <kmt_spin_lock>
  10400d:	a1 e0 5b 11 00       	mov    0x115be0,%eax
  104012:	89 47 74             	mov    %eax,0x74(%edi)
  104015:	89 3d e0 5b 11 00    	mov    %edi,0x115be0
  10401b:	c7 04 24 40 a5 13 00 	movl   $0x13a540,(%esp)
  104022:	e8 81 fb ff ff       	call   103ba8 <kmt_spin_unlock>
  104027:	83 c4 10             	add    $0x10,%esp
  10402a:	89 75 08             	mov    %esi,0x8(%ebp)
  10402d:	8d 65 f4             	lea    -0xc(%ebp),%esp
  104030:	5b                   	pop    %ebx
  104031:	5e                   	pop    %esi
  104032:	5f                   	pop    %edi
  104033:	5d                   	pop    %ebp
  104034:	e9 6f fb ff ff       	jmp    103ba8 <kmt_spin_unlock>
  104039:	8b 43 20             	mov    0x20(%ebx),%eax
  10403c:	52                   	push   %edx
  10403d:	50                   	push   %eax
  10403e:	53                   	push   %ebx
  10403f:	68 f8 6b 10 00       	push   $0x106bf8
  104044:	e8 e7 16 00 00       	call   105730 <printf>
  104049:	c7 04 24 01 00 00 00 	movl   $0x1,(%esp)
  104050:	e8 bb bf ff ff       	call   100010 <_halt>
  104055:	8d 76 00             	lea    0x0(%esi),%esi

00104058 <holding>:
  104058:	55                   	push   %ebp
  104059:	89 e5                	mov    %esp,%ebp
  10405b:	53                   	push   %ebx
  10405c:	51                   	push   %ecx
  10405d:	8b 45 08             	mov    0x8(%ebp),%eax
  104060:	8b 50 20             	mov    0x20(%eax),%edx
  104063:	85 d2                	test   %edx,%edx
  104065:	75 09                	jne    104070 <holding+0x18>
  104067:	31 c0                	xor    %eax,%eax
  104069:	5a                   	pop    %edx
  10406a:	5b                   	pop    %ebx
  10406b:	5d                   	pop    %ebp
  10406c:	c3                   	ret    
  10406d:	8d 76 00             	lea    0x0(%esi),%esi
  104070:	8b 58 24             	mov    0x24(%eax),%ebx
  104073:	e8 a8 c6 ff ff       	call   100720 <_cpu>
  104078:	39 c3                	cmp    %eax,%ebx
  10407a:	0f 94 c0             	sete   %al
  10407d:	0f b6 c0             	movzbl %al,%eax
  104080:	5a                   	pop    %edx
  104081:	5b                   	pop    %ebx
  104082:	5d                   	pop    %ebp
  104083:	c3                   	ret    

00104084 <input_notify>:
  104084:	55                   	push   %ebp
  104085:	89 e5                	mov    %esp,%ebp
  104087:	83 ec 14             	sub    $0x14,%esp
  10408a:	68 80 a5 13 00       	push   $0x13a580
  10408f:	a1 c4 80 10 00       	mov    0x1080c4,%eax
  104094:	ff 50 20             	call   *0x20(%eax)
  104097:	31 c0                	xor    %eax,%eax
  104099:	c9                   	leave  
  10409a:	c3                   	ret    
  10409b:	90                   	nop

0010409c <input_init>:
  10409c:	55                   	push   %ebp
  10409d:	89 e5                	mov    %esp,%ebp
  10409f:	53                   	push   %ebx
  1040a0:	83 ec 10             	sub    $0x10,%esp
  1040a3:	8b 45 08             	mov    0x8(%ebp),%eax
  1040a6:	8b 58 08             	mov    0x8(%eax),%ebx
  1040a9:	68 00 02 00 00       	push   $0x200
  1040ae:	a1 90 80 10 00       	mov    0x108090,%eax
  1040b3:	ff 50 04             	call   *0x4(%eax)
  1040b6:	89 43 78             	mov    %eax,0x78(%ebx)
  1040b9:	c7 83 80 00 00 00 00 	movl   $0x0,0x80(%ebx)
  1040c0:	00 00 00 
  1040c3:	c7 43 7c 00 00 00 00 	movl   $0x0,0x7c(%ebx)
  1040ca:	58                   	pop    %eax
  1040cb:	5a                   	pop    %edx
  1040cc:	68 3d 6c 10 00       	push   $0x106c3d
  1040d1:	53                   	push   %ebx
  1040d2:	a1 c4 80 10 00       	mov    0x1080c4,%eax
  1040d7:	ff 50 0c             	call   *0xc(%eax)
  1040da:	83 c4 0c             	add    $0xc,%esp
  1040dd:	6a 00                	push   $0x0
  1040df:	68 4d 6c 10 00       	push   $0x106c4d
  1040e4:	83 c3 28             	add    $0x28,%ebx
  1040e7:	53                   	push   %ebx
  1040e8:	a1 c4 80 10 00       	mov    0x1080c4,%eax
  1040ed:	ff 50 18             	call   *0x18(%eax)
  1040f0:	83 c4 0c             	add    $0xc,%esp
  1040f3:	6a 00                	push   $0x0
  1040f5:	68 5d 6c 10 00       	push   $0x106c5d
  1040fa:	68 80 a5 13 00       	push   $0x13a580
  1040ff:	a1 c4 80 10 00       	mov    0x1080c4,%eax
  104104:	ff 50 18             	call   *0x18(%eax)
  104107:	83 c4 0c             	add    $0xc,%esp
  10410a:	68 84 40 10 00       	push   $0x104084
  10410f:	6a 03                	push   $0x3
  104111:	6a 00                	push   $0x0
  104113:	a1 e4 4e 11 00       	mov    0x114ee4,%eax
  104118:	ff 50 0c             	call   *0xc(%eax)
  10411b:	31 c0                	xor    %eax,%eax
  10411d:	8b 5d fc             	mov    -0x4(%ebp),%ebx
  104120:	c9                   	leave  
  104121:	c3                   	ret    
  104122:	66 90                	xchg   %ax,%ax

00104124 <input_write>:
  104124:	55                   	push   %ebp
  104125:	89 e5                	mov    %esp,%ebp
  104127:	31 c0                	xor    %eax,%eax
  104129:	5d                   	pop    %ebp
  10412a:	c3                   	ret    
  10412b:	90                   	nop

0010412c <input_read>:
  10412c:	55                   	push   %ebp
  10412d:	89 e5                	mov    %esp,%ebp
  10412f:	56                   	push   %esi
  104130:	53                   	push   %ebx
  104131:	83 ec 1c             	sub    $0x1c,%esp
  104134:	8b 45 08             	mov    0x8(%ebp),%eax
  104137:	8b 58 08             	mov    0x8(%eax),%ebx
  10413a:	8d 43 28             	lea    0x28(%ebx),%eax
  10413d:	50                   	push   %eax
  10413e:	a1 c4 80 10 00       	mov    0x1080c4,%eax
  104143:	ff 50 1c             	call   *0x1c(%eax)
  104146:	89 1c 24             	mov    %ebx,(%esp)
  104149:	a1 c4 80 10 00       	mov    0x1080c4,%eax
  10414e:	ff 50 10             	call   *0x10(%eax)
  104151:	8b 53 7c             	mov    0x7c(%ebx),%edx
  104154:	83 c4 10             	add    $0x10,%esp
  104157:	39 93 80 00 00 00    	cmp    %edx,0x80(%ebx)
  10415d:	74 57                	je     1041b6 <input_read+0x8a>
  10415f:	8d 42 01             	lea    0x1(%edx),%eax
  104162:	25 7f 00 00 80       	and    $0x8000007f,%eax
  104167:	79 05                	jns    10416e <input_read+0x42>
  104169:	48                   	dec    %eax
  10416a:	83 c8 80             	or     $0xffffff80,%eax
  10416d:	40                   	inc    %eax
  10416e:	89 43 7c             	mov    %eax,0x7c(%ebx)
  104171:	8b 43 78             	mov    0x78(%ebx),%eax
  104174:	8b 34 90             	mov    (%eax,%edx,4),%esi
  104177:	83 ec 0c             	sub    $0xc,%esp
  10417a:	53                   	push   %ebx
  10417b:	a1 c4 80 10 00       	mov    0x1080c4,%eax
  104180:	ff 50 14             	call   *0x14(%eax)
  104183:	89 75 f4             	mov    %esi,-0xc(%ebp)
  104186:	83 c4 10             	add    $0x10,%esp
  104189:	83 7d 14 03          	cmpl   $0x3,0x14(%ebp)
  10418d:	77 09                	ja     104198 <input_read+0x6c>
  10418f:	31 c0                	xor    %eax,%eax
  104191:	8d 65 f8             	lea    -0x8(%ebp),%esp
  104194:	5b                   	pop    %ebx
  104195:	5e                   	pop    %esi
  104196:	5d                   	pop    %ebp
  104197:	c3                   	ret    
  104198:	50                   	push   %eax
  104199:	6a 04                	push   $0x4
  10419b:	8d 45 f4             	lea    -0xc(%ebp),%eax
  10419e:	50                   	push   %eax
  10419f:	ff 75 10             	pushl  0x10(%ebp)
  1041a2:	e8 31 1a 00 00       	call   105bd8 <memcpy>
  1041a7:	83 c4 10             	add    $0x10,%esp
  1041aa:	b8 04 00 00 00       	mov    $0x4,%eax
  1041af:	8d 65 f8             	lea    -0x8(%ebp),%esp
  1041b2:	5b                   	pop    %ebx
  1041b3:	5e                   	pop    %esi
  1041b4:	5d                   	pop    %ebp
  1041b5:	c3                   	ret    
  1041b6:	bb ad 64 10 00       	mov    $0x1064ad,%ebx
  1041bb:	b8 41 00 00 00       	mov    $0x41,%eax
  1041c0:	83 ec 0c             	sub    $0xc,%esp
  1041c3:	50                   	push   %eax
  1041c4:	e8 37 be ff ff       	call   100000 <_putc>
  1041c9:	43                   	inc    %ebx
  1041ca:	0f be 03             	movsbl (%ebx),%eax
  1041cd:	83 c4 10             	add    $0x10,%esp
  1041d0:	84 c0                	test   %al,%al
  1041d2:	75 ec                	jne    1041c0 <input_read+0x94>
  1041d4:	bb 70 6c 10 00       	mov    $0x106c70,%ebx
  1041d9:	b8 69 00 00 00       	mov    $0x69,%eax
  1041de:	83 ec 0c             	sub    $0xc,%esp
  1041e1:	50                   	push   %eax
  1041e2:	e8 19 be ff ff       	call   100000 <_putc>
  1041e7:	43                   	inc    %ebx
  1041e8:	0f be 03             	movsbl (%ebx),%eax
  1041eb:	83 c4 10             	add    $0x10,%esp
  1041ee:	84 c0                	test   %al,%al
  1041f0:	75 ec                	jne    1041de <input_read+0xb2>
  1041f2:	bb 9c 6c 10 00       	mov    $0x106c9c,%ebx
  1041f7:	b8 20 00 00 00       	mov    $0x20,%eax
  1041fc:	83 ec 0c             	sub    $0xc,%esp
  1041ff:	50                   	push   %eax
  104200:	e8 fb bd ff ff       	call   100000 <_putc>
  104205:	43                   	inc    %ebx
  104206:	0f be 03             	movsbl (%ebx),%eax
  104209:	83 c4 10             	add    $0x10,%esp
  10420c:	84 c0                	test   %al,%al
  10420e:	75 ec                	jne    1041fc <input_read+0xd0>
  104210:	83 ec 0c             	sub    $0xc,%esp
  104213:	6a 01                	push   $0x1
  104215:	e8 f6 bd ff ff       	call   100010 <_halt>
  10421a:	66 90                	xchg   %ax,%ax

0010421c <push_event>:
  10421c:	55                   	push   %ebp
  10421d:	89 e5                	mov    %esp,%ebp
  10421f:	56                   	push   %esi
  104220:	53                   	push   %ebx
  104221:	89 c3                	mov    %eax,%ebx
  104223:	89 d6                	mov    %edx,%esi
  104225:	83 ec 0c             	sub    $0xc,%esp
  104228:	50                   	push   %eax
  104229:	a1 c4 80 10 00       	mov    0x1080c4,%eax
  10422e:	ff 50 10             	call   *0x10(%eax)
  104231:	8b 8b 80 00 00 00    	mov    0x80(%ebx),%ecx
  104237:	8b 43 78             	mov    0x78(%ebx),%eax
  10423a:	89 34 88             	mov    %esi,(%eax,%ecx,4)
  10423d:	8d 51 01             	lea    0x1(%ecx),%edx
  104240:	83 c4 10             	add    $0x10,%esp
  104243:	81 e2 7f 00 00 80    	and    $0x8000007f,%edx
  104249:	79 05                	jns    104250 <push_event+0x34>
  10424b:	4a                   	dec    %edx
  10424c:	83 ca 80             	or     $0xffffff80,%edx
  10424f:	42                   	inc    %edx
  104250:	89 93 80 00 00 00    	mov    %edx,0x80(%ebx)
  104256:	3b 53 7c             	cmp    0x7c(%ebx),%edx
  104259:	74 24                	je     10427f <push_event+0x63>
  10425b:	83 ec 0c             	sub    $0xc,%esp
  10425e:	53                   	push   %ebx
  10425f:	a1 c4 80 10 00       	mov    0x1080c4,%eax
  104264:	ff 50 14             	call   *0x14(%eax)
  104267:	83 c3 28             	add    $0x28,%ebx
  10426a:	89 1c 24             	mov    %ebx,(%esp)
  10426d:	a1 c4 80 10 00       	mov    0x1080c4,%eax
  104272:	ff 50 20             	call   *0x20(%eax)
  104275:	83 c4 10             	add    $0x10,%esp
  104278:	8d 65 f8             	lea    -0x8(%ebp),%esp
  10427b:	5b                   	pop    %ebx
  10427c:	5e                   	pop    %esi
  10427d:	5d                   	pop    %ebp
  10427e:	c3                   	ret    
  10427f:	bb ad 64 10 00       	mov    $0x1064ad,%ebx
  104284:	b8 41 00 00 00       	mov    $0x41,%eax
  104289:	83 ec 0c             	sub    $0xc,%esp
  10428c:	50                   	push   %eax
  10428d:	e8 6e bd ff ff       	call   100000 <_putc>
  104292:	43                   	inc    %ebx
  104293:	0f be 03             	movsbl (%ebx),%eax
  104296:	83 c4 10             	add    $0x10,%esp
  104299:	84 c0                	test   %al,%al
  10429b:	75 ec                	jne    104289 <push_event+0x6d>
  10429d:	bb 82 6c 10 00       	mov    $0x106c82,%ebx
  1042a2:	b8 69 00 00 00       	mov    $0x69,%eax
  1042a7:	83 ec 0c             	sub    $0xc,%esp
  1042aa:	50                   	push   %eax
  1042ab:	e8 50 bd ff ff       	call   100000 <_putc>
  1042b0:	43                   	inc    %ebx
  1042b1:	0f be 03             	movsbl (%ebx),%eax
  1042b4:	83 c4 10             	add    $0x10,%esp
  1042b7:	84 c0                	test   %al,%al
  1042b9:	75 ec                	jne    1042a7 <push_event+0x8b>
  1042bb:	bb c0 6c 10 00       	mov    $0x106cc0,%ebx
  1042c0:	b8 20 00 00 00       	mov    $0x20,%eax
  1042c5:	83 ec 0c             	sub    $0xc,%esp
  1042c8:	50                   	push   %eax
  1042c9:	e8 32 bd ff ff       	call   100000 <_putc>
  1042ce:	43                   	inc    %ebx
  1042cf:	0f be 03             	movsbl (%ebx),%eax
  1042d2:	83 c4 10             	add    $0x10,%esp
  1042d5:	84 c0                	test   %al,%al
  1042d7:	75 ec                	jne    1042c5 <push_event+0xa9>
  1042d9:	83 ec 0c             	sub    $0xc,%esp
  1042dc:	6a 01                	push   $0x1
  1042de:	e8 2d bd ff ff       	call   100010 <_halt>
  1042e3:	90                   	nop

001042e4 <input_keydown>:
  1042e4:	55                   	push   %ebp
  1042e5:	89 e5                	mov    %esp,%ebp
  1042e7:	57                   	push   %edi
  1042e8:	56                   	push   %esi
  1042e9:	53                   	push   %ebx
  1042ea:	83 ec 1c             	sub    $0x1c,%esp
  1042ed:	8b 55 0c             	mov    0xc(%ebp),%edx
  1042f0:	8b 45 08             	mov    0x8(%ebp),%eax
  1042f3:	8b 40 08             	mov    0x8(%eax),%eax
  1042f6:	f6 c6 80             	test   $0x80,%dh
  1042f9:	74 19                	je     104314 <input_keydown+0x30>
  1042fb:	80 e6 7f             	and    $0x7f,%dh
  1042fe:	8d 4a d6             	lea    -0x2a(%edx),%ecx
  104301:	83 f9 1e             	cmp    $0x1e,%ecx
  104304:	0f 87 c6 00 00 00    	ja     1043d0 <input_keydown+0xec>
  10430a:	ff 24 8d e4 6c 10 00 	jmp    *0x106ce4(,%ecx,4)
  104311:	8d 76 00             	lea    0x0(%esi),%esi
  104314:	83 ea 37             	sub    $0x37,%edx
  104317:	83 fa 11             	cmp    $0x11,%edx
  10431a:	77 12                	ja     10432e <input_keydown+0x4a>
  10431c:	ff 24 95 60 6d 10 00 	jmp    *0x106d60(,%edx,4)
  104323:	90                   	nop
  104324:	c7 80 8c 00 00 00 00 	movl   $0x0,0x8c(%eax)
  10432b:	00 00 00 
  10432e:	83 c4 1c             	add    $0x1c,%esp
  104331:	5b                   	pop    %ebx
  104332:	5e                   	pop    %esi
  104333:	5f                   	pop    %edi
  104334:	5d                   	pop    %ebp
  104335:	c3                   	ret    
  104336:	66 90                	xchg   %ax,%ax
  104338:	c7 80 94 00 00 00 00 	movl   $0x0,0x94(%eax)
  10433f:	00 00 00 
  104342:	eb ea                	jmp    10432e <input_keydown+0x4a>
  104344:	c7 80 9c 00 00 00 00 	movl   $0x0,0x9c(%eax)
  10434b:	00 00 00 
  10434e:	eb de                	jmp    10432e <input_keydown+0x4a>
  104350:	c7 80 98 00 00 00 00 	movl   $0x0,0x98(%eax)
  104357:	00 00 00 
  10435a:	eb d2                	jmp    10432e <input_keydown+0x4a>
  10435c:	c7 80 90 00 00 00 00 	movl   $0x0,0x90(%eax)
  104363:	00 00 00 
  104366:	eb c6                	jmp    10432e <input_keydown+0x4a>
  104368:	c7 80 88 00 00 00 00 	movl   $0x0,0x88(%eax)
  10436f:	00 00 00 
  104372:	eb ba                	jmp    10432e <input_keydown+0x4a>
  104374:	c7 80 94 00 00 00 01 	movl   $0x1,0x94(%eax)
  10437b:	00 00 00 
  10437e:	eb ae                	jmp    10432e <input_keydown+0x4a>
  104380:	c7 80 9c 00 00 00 01 	movl   $0x1,0x9c(%eax)
  104387:	00 00 00 
  10438a:	eb a2                	jmp    10432e <input_keydown+0x4a>
  10438c:	c7 80 98 00 00 00 01 	movl   $0x1,0x98(%eax)
  104393:	00 00 00 
  104396:	eb 96                	jmp    10432e <input_keydown+0x4a>
  104398:	c7 80 90 00 00 00 01 	movl   $0x1,0x90(%eax)
  10439f:	00 00 00 
  1043a2:	eb 8a                	jmp    10432e <input_keydown+0x4a>
  1043a4:	c7 80 8c 00 00 00 01 	movl   $0x1,0x8c(%eax)
  1043ab:	00 00 00 
  1043ae:	e9 7b ff ff ff       	jmp    10432e <input_keydown+0x4a>
  1043b3:	90                   	nop
  1043b4:	c7 80 88 00 00 00 01 	movl   $0x1,0x88(%eax)
  1043bb:	00 00 00 
  1043be:	e9 6b ff ff ff       	jmp    10432e <input_keydown+0x4a>
  1043c3:	90                   	nop
  1043c4:	83 b0 84 00 00 00 01 	xorl   $0x1,0x84(%eax)
  1043cb:	e9 5e ff ff ff       	jmp    10432e <input_keydown+0x4a>
  1043d0:	66 0f be 8a e0 81 10 	movsbw 0x1081e0(%edx),%cx
  1043d7:	00 
  1043d8:	84 c9                	test   %cl,%cl
  1043da:	0f 84 4e ff ff ff    	je     10432e <input_keydown+0x4a>
  1043e0:	8b b8 88 00 00 00    	mov    0x88(%eax),%edi
  1043e6:	85 ff                	test   %edi,%edi
  1043e8:	75 5a                	jne    104444 <input_keydown+0x160>
  1043ea:	31 db                	xor    %ebx,%ebx
  1043ec:	8b b0 8c 00 00 00    	mov    0x8c(%eax),%esi
  1043f2:	85 f6                	test   %esi,%esi
  1043f4:	0f 95 c3             	setne  %bl
  1043f7:	89 de                	mov    %ebx,%esi
  1043f9:	8b 98 98 00 00 00    	mov    0x98(%eax),%ebx
  1043ff:	8b b8 90 00 00 00    	mov    0x90(%eax),%edi
  104405:	85 ff                	test   %edi,%edi
  104407:	74 43                	je     10444c <input_keydown+0x168>
  104409:	85 db                	test   %ebx,%ebx
  10440b:	0f 85 83 00 00 00    	jne    104494 <input_keydown+0x1b0>
  104411:	8b 90 9c 00 00 00    	mov    0x9c(%eax),%edx
  104417:	85 d2                	test   %edx,%edx
  104419:	0f 95 c3             	setne  %bl
  10441c:	c6 45 e4 01          	movb   $0x1,-0x1c(%ebp)
  104420:	83 e3 01             	and    $0x1,%ebx
  104423:	01 db                	add    %ebx,%ebx
  104425:	8b 55 e4             	mov    -0x1c(%ebp),%edx
  104428:	83 e2 01             	and    $0x1,%edx
  10442b:	0f b7 c9             	movzwl %cx,%ecx
  10442e:	c1 e1 02             	shl    $0x2,%ecx
  104431:	09 d3                	or     %edx,%ebx
  104433:	09 cb                	or     %ecx,%ebx
  104435:	89 da                	mov    %ebx,%edx
  104437:	83 c4 1c             	add    $0x1c,%esp
  10443a:	5b                   	pop    %ebx
  10443b:	5e                   	pop    %esi
  10443c:	5f                   	pop    %edi
  10443d:	5d                   	pop    %ebp
  10443e:	e9 d9 fd ff ff       	jmp    10421c <push_event>
  104443:	90                   	nop
  104444:	be 01 00 00 00       	mov    $0x1,%esi
  104449:	eb ae                	jmp    1043f9 <input_keydown+0x115>
  10444b:	90                   	nop
  10444c:	8b b8 94 00 00 00    	mov    0x94(%eax),%edi
  104452:	85 ff                	test   %edi,%edi
  104454:	0f 95 45 e4          	setne  -0x1c(%ebp)
  104458:	85 db                	test   %ebx,%ebx
  10445a:	75 34                	jne    104490 <input_keydown+0x1ac>
  10445c:	83 b8 9c 00 00 00 00 	cmpl   $0x0,0x9c(%eax)
  104463:	75 2b                	jne    104490 <input_keydown+0x1ac>
  104465:	85 ff                	test   %edi,%edi
  104467:	75 2d                	jne    104496 <input_keydown+0x1b2>
  104469:	0f be d9             	movsbl %cl,%ebx
  10446c:	83 eb 61             	sub    $0x61,%ebx
  10446f:	83 fb 19             	cmp    $0x19,%ebx
  104472:	77 06                	ja     10447a <input_keydown+0x196>
  104474:	33 b0 84 00 00 00    	xor    0x84(%eax),%esi
  10447a:	85 f6                	test   %esi,%esi
  10447c:	74 1e                	je     10449c <input_keydown+0x1b8>
  10447e:	66 0f be 92 e0 80 10 	movsbw 0x1080e0(%edx),%dx
  104485:	00 
  104486:	0f b7 d2             	movzwl %dx,%edx
  104489:	c1 e2 02             	shl    $0x2,%edx
  10448c:	eb a9                	jmp    104437 <input_keydown+0x153>
  10448e:	66 90                	xchg   %ax,%ax
  104490:	b3 01                	mov    $0x1,%bl
  104492:	eb 8c                	jmp    104420 <input_keydown+0x13c>
  104494:	b3 01                	mov    $0x1,%bl
  104496:	c6 45 e4 01          	movb   $0x1,-0x1c(%ebp)
  10449a:	eb 84                	jmp    104420 <input_keydown+0x13c>
  10449c:	66 0f be d1          	movsbw %cl,%dx
  1044a0:	eb e4                	jmp    104486 <input_keydown+0x1a2>
  1044a2:	66 90                	xchg   %ax,%ax

001044a4 <input_task>:
  1044a4:	55                   	push   %ebp
  1044a5:	89 e5                	mov    %esp,%ebp
  1044a7:	53                   	push   %ebx
  1044a8:	83 ec 10             	sub    $0x10,%esp
  1044ab:	68 93 6c 10 00       	push   $0x106c93
  1044b0:	e8 2b 10 00 00       	call   1054e0 <dev_lookup>
  1044b5:	89 c3                	mov    %eax,%ebx
  1044b7:	83 c4 10             	add    $0x10,%esp
  1044ba:	eb 13                	jmp    1044cf <input_task+0x2b>
  1044bc:	83 ec 0c             	sub    $0xc,%esp
  1044bf:	68 80 a5 13 00       	push   $0x13a580
  1044c4:	a1 c4 80 10 00       	mov    0x1080c4,%eax
  1044c9:	ff 50 1c             	call   *0x1c(%eax)
  1044cc:	83 c4 10             	add    $0x10,%esp
  1044cf:	e8 d8 17 00 00       	call   105cac <read_key>
  1044d4:	85 c0                	test   %eax,%eax
  1044d6:	74 e4                	je     1044bc <input_task+0x18>
  1044d8:	83 ec 08             	sub    $0x8,%esp
  1044db:	50                   	push   %eax
  1044dc:	53                   	push   %ebx
  1044dd:	e8 02 fe ff ff       	call   1042e4 <input_keydown>
  1044e2:	83 c4 10             	add    $0x10,%esp
  1044e5:	eb e8                	jmp    1044cf <input_task+0x2b>
  1044e7:	90                   	nop

001044e8 <rd_init>:
  1044e8:	55                   	push   %ebp
  1044e9:	89 e5                	mov    %esp,%ebp
  1044eb:	53                   	push   %ebx
  1044ec:	50                   	push   %eax
  1044ed:	8b 45 08             	mov    0x8(%ebp),%eax
  1044f0:	8b 58 08             	mov    0x8(%eax),%ebx
  1044f3:	83 78 04 01          	cmpl   $0x1,0x4(%eax)
  1044f7:	74 27                	je     104520 <rd_init+0x38>
  1044f9:	83 ec 0c             	sub    $0xc,%esp
  1044fc:	68 00 00 40 00       	push   $0x400000
  104501:	a1 90 80 10 00       	mov    0x108090,%eax
  104506:	ff 50 04             	call   *0x4(%eax)
  104509:	89 03                	mov    %eax,(%ebx)
  10450b:	05 00 00 40 00       	add    $0x400000,%eax
  104510:	89 43 04             	mov    %eax,0x4(%ebx)
  104513:	83 c4 10             	add    $0x10,%esp
  104516:	31 c0                	xor    %eax,%eax
  104518:	8b 5d fc             	mov    -0x4(%ebp),%ebx
  10451b:	c9                   	leave  
  10451c:	c3                   	ret    
  10451d:	8d 76 00             	lea    0x0(%esi),%esi
  104520:	c7 03 f8 82 10 00    	movl   $0x1082f8,(%ebx)
  104526:	c7 43 04 a5 1e 11 00 	movl   $0x111ea5,0x4(%ebx)
  10452d:	eb e7                	jmp    104516 <rd_init+0x2e>
  10452f:	90                   	nop

00104530 <rd_read>:
  104530:	55                   	push   %ebp
  104531:	89 e5                	mov    %esp,%ebp
  104533:	53                   	push   %ebx
  104534:	83 ec 08             	sub    $0x8,%esp
  104537:	8b 5d 14             	mov    0x14(%ebp),%ebx
  10453a:	53                   	push   %ebx
  10453b:	8b 45 08             	mov    0x8(%ebp),%eax
  10453e:	8b 40 08             	mov    0x8(%eax),%eax
  104541:	8b 00                	mov    (%eax),%eax
  104543:	03 45 0c             	add    0xc(%ebp),%eax
  104546:	50                   	push   %eax
  104547:	ff 75 10             	pushl  0x10(%ebp)
  10454a:	e8 89 16 00 00       	call   105bd8 <memcpy>
  10454f:	89 d8                	mov    %ebx,%eax
  104551:	8b 5d fc             	mov    -0x4(%ebp),%ebx
  104554:	c9                   	leave  
  104555:	c3                   	ret    
  104556:	66 90                	xchg   %ax,%ax

00104558 <rd_write>:
  104558:	55                   	push   %ebp
  104559:	89 e5                	mov    %esp,%ebp
  10455b:	53                   	push   %ebx
  10455c:	83 ec 08             	sub    $0x8,%esp
  10455f:	8b 5d 14             	mov    0x14(%ebp),%ebx
  104562:	53                   	push   %ebx
  104563:	ff 75 10             	pushl  0x10(%ebp)
  104566:	8b 45 08             	mov    0x8(%ebp),%eax
  104569:	8b 40 08             	mov    0x8(%eax),%eax
  10456c:	8b 00                	mov    (%eax),%eax
  10456e:	03 45 0c             	add    0xc(%ebp),%eax
  104571:	50                   	push   %eax
  104572:	e8 61 16 00 00       	call   105bd8 <memcpy>
  104577:	89 d8                	mov    %ebx,%eax
  104579:	8b 5d fc             	mov    -0x4(%ebp),%ebx
  10457c:	c9                   	leave  
  10457d:	c3                   	ret    
  10457e:	66 90                	xchg   %ax,%ax

00104580 <fb_read>:
  104580:	55                   	push   %ebp
  104581:	89 e5                	mov    %esp,%ebp
  104583:	83 ec 08             	sub    $0x8,%esp
  104586:	8b 55 0c             	mov    0xc(%ebp),%edx
  104589:	85 d2                	test   %edx,%edx
  10458b:	75 06                	jne    104593 <fb_read+0x13>
  10458d:	83 7d 14 18          	cmpl   $0x18,0x14(%ebp)
  104591:	74 05                	je     104598 <fb_read+0x18>
  104593:	31 c0                	xor    %eax,%eax
  104595:	c9                   	leave  
  104596:	c3                   	ret    
  104597:	90                   	nop
  104598:	50                   	push   %eax
  104599:	6a 18                	push   $0x18
  10459b:	8b 45 08             	mov    0x8(%ebp),%eax
  10459e:	8b 40 08             	mov    0x8(%eax),%eax
  1045a1:	ff 30                	pushl  (%eax)
  1045a3:	ff 75 10             	pushl  0x10(%ebp)
  1045a6:	e8 2d 16 00 00       	call   105bd8 <memcpy>
  1045ab:	83 c4 10             	add    $0x10,%esp
  1045ae:	31 c0                	xor    %eax,%eax
  1045b0:	c9                   	leave  
  1045b1:	c3                   	ret    
  1045b2:	66 90                	xchg   %ax,%ax

001045b4 <fb_write>:
  1045b4:	55                   	push   %ebp
  1045b5:	89 e5                	mov    %esp,%ebp
  1045b7:	57                   	push   %edi
  1045b8:	56                   	push   %esi
  1045b9:	53                   	push   %ebx
  1045ba:	83 ec 38             	sub    $0x38,%esp
  1045bd:	8b 7d 0c             	mov    0xc(%ebp),%edi
  1045c0:	8b 5d 10             	mov    0x10(%ebp),%ebx
  1045c3:	8b 45 08             	mov    0x8(%ebp),%eax
  1045c6:	8b 70 08             	mov    0x8(%eax),%esi
  1045c9:	68 00 5c 11 00       	push   $0x115c00
  1045ce:	a1 c4 80 10 00       	mov    0x1080c4,%eax
  1045d3:	ff 50 1c             	call   *0x1c(%eax)
  1045d6:	83 c4 10             	add    $0x10,%esp
  1045d9:	85 ff                	test   %edi,%edi
  1045db:	75 2b                	jne    104608 <fb_write+0x54>
  1045dd:	8b 06                	mov    (%esi),%eax
  1045df:	8b 53 0c             	mov    0xc(%ebx),%edx
  1045e2:	39 50 0c             	cmp    %edx,0xc(%eax)
  1045e5:	74 03                	je     1045ea <fb_write+0x36>
  1045e7:	89 50 0c             	mov    %edx,0xc(%eax)
  1045ea:	83 ec 0c             	sub    $0xc,%esp
  1045ed:	68 00 5c 11 00       	push   $0x115c00
  1045f2:	a1 c4 80 10 00       	mov    0x1080c4,%eax
  1045f7:	ff 50 20             	call   *0x20(%eax)
  1045fa:	8b 45 14             	mov    0x14(%ebp),%eax
  1045fd:	8d 65 f4             	lea    -0xc(%ebp),%esp
  104600:	5b                   	pop    %ebx
  104601:	5e                   	pop    %esi
  104602:	5f                   	pop    %edi
  104603:	5d                   	pop    %ebp
  104604:	c3                   	ret    
  104605:	8d 76 00             	lea    0x0(%esi),%esi
  104608:	81 ff ff ff ff 00    	cmp    $0xffffff,%edi
  10460e:	7e 48                	jle    104658 <fb_write+0xa4>
  104610:	31 d2                	xor    %edx,%edx
  104612:	31 c0                	xor    %eax,%eax
  104614:	89 54 05 d0          	mov    %edx,-0x30(%ebp,%eax,1)
  104618:	83 c0 04             	add    $0x4,%eax
  10461b:	83 f8 18             	cmp    $0x18,%eax
  10461e:	72 f4                	jb     104614 <fb_write+0x60>
  104620:	c7 45 dc 08 00 00 00 	movl   $0x8,-0x24(%ebp)
  104627:	c7 45 e0 08 00 00 00 	movl   $0x8,-0x20(%ebp)
  10462e:	8b 7d 14             	mov    0x14(%ebp),%edi
  104631:	01 df                	add    %ebx,%edi
  104633:	39 fb                	cmp    %edi,%ebx
  104635:	73 b3                	jae    1045ea <fb_write+0x36>
  104637:	90                   	nop
  104638:	0f b7 03             	movzwl (%ebx),%eax
  10463b:	66 85 c0             	test   %ax,%ax
  10463e:	74 0d                	je     10464d <fb_write+0x99>
  104640:	8a 53 06             	mov    0x6(%ebx),%dl
  104643:	83 e2 0f             	and    $0xf,%edx
  104646:	8b 0e                	mov    (%esi),%ecx
  104648:	3b 51 0c             	cmp    0xc(%ecx),%edx
  10464b:	74 23                	je     104670 <fb_write+0xbc>
  10464d:	83 c3 08             	add    $0x8,%ebx
  104650:	39 fb                	cmp    %edi,%ebx
  104652:	72 e4                	jb     104638 <fb_write+0x84>
  104654:	eb 94                	jmp    1045ea <fb_write+0x36>
  104656:	66 90                	xchg   %ax,%ax
  104658:	50                   	push   %eax
  104659:	ff 75 14             	pushl  0x14(%ebp)
  10465c:	53                   	push   %ebx
  10465d:	03 7e 04             	add    0x4(%esi),%edi
  104660:	57                   	push   %edi
  104661:	e8 72 15 00 00       	call   105bd8 <memcpy>
  104666:	83 c4 10             	add    $0x10,%esp
  104669:	e9 7c ff ff ff       	jmp    1045ea <fb_write+0x36>
  10466e:	66 90                	xchg   %ax,%ax
  104670:	0f b7 53 02          	movzwl 0x2(%ebx),%edx
  104674:	89 55 d0             	mov    %edx,-0x30(%ebp)
  104677:	0f b7 53 04          	movzwl 0x4(%ebx),%edx
  10467b:	89 55 d4             	mov    %edx,-0x2c(%ebp)
  10467e:	c1 e0 08             	shl    $0x8,%eax
  104681:	03 46 04             	add    0x4(%esi),%eax
  104684:	89 45 d8             	mov    %eax,-0x28(%ebp)
  104687:	6a 18                	push   $0x18
  104689:	8d 45 d0             	lea    -0x30(%ebp),%eax
  10468c:	50                   	push   %eax
  10468d:	6a 02                	push   $0x2
  10468f:	68 04 ac 00 00       	push   $0xac04
  104694:	e8 83 17 00 00       	call   105e1c <_io_write>
  104699:	83 c4 10             	add    $0x10,%esp
  10469c:	eb af                	jmp    10464d <fb_write+0x99>
  10469e:	66 90                	xchg   %ax,%ax

001046a0 <fb_init>:
  1046a0:	55                   	push   %ebp
  1046a1:	89 e5                	mov    %esp,%ebp
  1046a3:	57                   	push   %edi
  1046a4:	56                   	push   %esi
  1046a5:	53                   	push   %ebx
  1046a6:	83 ec 28             	sub    $0x28,%esp
  1046a9:	8b 45 08             	mov    0x8(%ebp),%eax
  1046ac:	8b 70 08             	mov    0x8(%eax),%esi
  1046af:	6a 18                	push   $0x18
  1046b1:	a1 90 80 10 00       	mov    0x108090,%eax
  1046b6:	ff 50 04             	call   *0x4(%eax)
  1046b9:	89 06                	mov    %eax,(%esi)
  1046bb:	c7 04 24 00 00 40 00 	movl   $0x400000,(%esp)
  1046c2:	a1 90 80 10 00       	mov    0x108090,%eax
  1046c7:	ff 50 04             	call   *0x4(%eax)
  1046ca:	89 46 04             	mov    %eax,0x4(%esi)
  1046cd:	c7 04 24 00 00 02 00 	movl   $0x20000,(%esp)
  1046d4:	a1 90 80 10 00       	mov    0x108090,%eax
  1046d9:	ff 50 04             	call   *0x4(%eax)
  1046dc:	89 46 08             	mov    %eax,0x8(%esi)
  1046df:	8b 1e                	mov    (%esi),%ebx
  1046e1:	e8 7e 16 00 00       	call   105d64 <screen_width>
  1046e6:	89 c7                	mov    %eax,%edi
  1046e8:	e8 97 16 00 00       	call   105d84 <screen_height>
  1046ed:	89 3b                	mov    %edi,(%ebx)
  1046ef:	89 43 04             	mov    %eax,0x4(%ebx)
  1046f2:	c7 43 08 08 00 00 00 	movl   $0x8,0x8(%ebx)
  1046f9:	c7 43 0c 00 00 00 00 	movl   $0x0,0xc(%ebx)
  104700:	c7 43 10 00 40 00 00 	movl   $0x4000,0x10(%ebx)
  104707:	c7 43 14 00 40 00 00 	movl   $0x4000,0x14(%ebx)
  10470e:	83 c4 0c             	add    $0xc,%esp
  104711:	6a 01                	push   $0x1
  104713:	8b 45 08             	mov    0x8(%ebp),%eax
  104716:	ff 30                	pushl  (%eax)
  104718:	68 00 5c 11 00       	push   $0x115c00
  10471d:	a1 c4 80 10 00       	mov    0x1080c4,%eax
  104722:	ff 50 18             	call   *0x18(%eax)
  104725:	8b 46 04             	mov    0x4(%esi),%eax
  104728:	05 00 02 00 00       	add    $0x200,%eax
  10472d:	89 45 e4             	mov    %eax,-0x1c(%ebp)
  104730:	c7 45 dc c0 1e 11 00 	movl   $0x111ec0,-0x24(%ebp)
  104737:	83 c4 10             	add    $0x10,%esp
  10473a:	bf 07 00 00 00       	mov    $0x7,%edi
  10473f:	90                   	nop
  104740:	8b 45 e4             	mov    -0x1c(%ebp),%eax
  104743:	8d 98 00 ff ff ff    	lea    -0x100(%eax),%ebx
  104749:	8b 75 dc             	mov    -0x24(%ebp),%esi
  10474c:	31 d2                	xor    %edx,%edx
  10474e:	66 90                	xchg   %ax,%ax
  104750:	0f b6 06             	movzbl (%esi),%eax
  104753:	89 f9                	mov    %edi,%ecx
  104755:	29 d1                	sub    %edx,%ecx
  104757:	d3 f8                	sar    %cl,%eax
  104759:	83 e0 01             	and    $0x1,%eax
  10475c:	f7 d8                	neg    %eax
  10475e:	25 ff ff ff 00       	and    $0xffffff,%eax
  104763:	89 04 93             	mov    %eax,(%ebx,%edx,4)
  104766:	42                   	inc    %edx
  104767:	83 fa 08             	cmp    $0x8,%edx
  10476a:	75 e4                	jne    104750 <fb_init+0xb0>
  10476c:	83 c3 20             	add    $0x20,%ebx
  10476f:	46                   	inc    %esi
  104770:	39 5d e4             	cmp    %ebx,-0x1c(%ebp)
  104773:	75 d7                	jne    10474c <fb_init+0xac>
  104775:	8b 45 e4             	mov    -0x1c(%ebp),%eax
  104778:	05 00 01 00 00       	add    $0x100,%eax
  10477d:	89 45 e0             	mov    %eax,-0x20(%ebp)
  104780:	8b 75 dc             	mov    -0x24(%ebp),%esi
  104783:	90                   	nop
  104784:	31 d2                	xor    %edx,%edx
  104786:	66 90                	xchg   %ax,%ax
  104788:	0f b6 46 08          	movzbl 0x8(%esi),%eax
  10478c:	89 f9                	mov    %edi,%ecx
  10478e:	29 d1                	sub    %edx,%ecx
  104790:	d3 f8                	sar    %cl,%eax
  104792:	83 e0 01             	and    $0x1,%eax
  104795:	f7 d8                	neg    %eax
  104797:	25 ff ff ff 00       	and    $0xffffff,%eax
  10479c:	89 04 93             	mov    %eax,(%ebx,%edx,4)
  10479f:	42                   	inc    %edx
  1047a0:	83 fa 08             	cmp    $0x8,%edx
  1047a3:	75 e3                	jne    104788 <fb_init+0xe8>
  1047a5:	83 c3 20             	add    $0x20,%ebx
  1047a8:	46                   	inc    %esi
  1047a9:	39 5d e0             	cmp    %ebx,-0x20(%ebp)
  1047ac:	75 d6                	jne    104784 <fb_init+0xe4>
  1047ae:	81 45 e4 00 02 00 00 	addl   $0x200,-0x1c(%ebp)
  1047b5:	83 45 dc 10          	addl   $0x10,-0x24(%ebp)
  1047b9:	8b 45 dc             	mov    -0x24(%ebp),%eax
  1047bc:	be c0 2e 11 00       	mov    $0x112ec0,%esi
  1047c1:	39 c6                	cmp    %eax,%esi
  1047c3:	0f 85 77 ff ff ff    	jne    104740 <fb_init+0xa0>
  1047c9:	31 c0                	xor    %eax,%eax
  1047cb:	8d 65 f4             	lea    -0xc(%ebp),%esp
  1047ce:	5b                   	pop    %ebx
  1047cf:	5e                   	pop    %esi
  1047d0:	5f                   	pop    %edi
  1047d1:	5d                   	pop    %ebp
  1047d2:	c3                   	ret    
  1047d3:	90                   	nop

001047d4 <tty_render>:
  1047d4:	55                   	push   %ebp
  1047d5:	89 e5                	mov    %esp,%ebp
  1047d7:	57                   	push   %edi
  1047d8:	56                   	push   %esi
  1047d9:	53                   	push   %ebx
  1047da:	83 ec 48             	sub    $0x48,%esp
  1047dd:	89 c7                	mov    %eax,%edi
  1047df:	8b 80 b4 00 00 00    	mov    0xb4(%eax),%eax
  1047e5:	89 45 cc             	mov    %eax,-0x34(%ebp)
  1047e8:	8b 87 d0 00 00 00    	mov    0xd0(%edi),%eax
  1047ee:	89 45 d0             	mov    %eax,-0x30(%ebp)
  1047f1:	57                   	push   %edi
  1047f2:	a1 c4 80 10 00       	mov    0x1080c4,%eax
  1047f7:	ff 50 1c             	call   *0x1c(%eax)
  1047fa:	83 c4 10             	add    $0x10,%esp
  1047fd:	8b 97 a8 00 00 00    	mov    0xa8(%edi),%edx
  104803:	85 d2                	test   %edx,%edx
  104805:	0f 8e fe 00 00 00    	jle    104909 <tty_render+0x135>
  10480b:	66 c7 45 d4 00 00    	movw   $0x0,-0x2c(%ebp)
  104811:	c7 45 c4 00 00 00 00 	movl   $0x0,-0x3c(%ebp)
  104818:	8b 87 ac 00 00 00    	mov    0xac(%edi),%eax
  10481e:	85 c0                	test   %eax,%eax
  104820:	0f 8e cc 00 00 00    	jle    1048f2 <tty_render+0x11e>
  104826:	8b 45 d4             	mov    -0x2c(%ebp),%eax
  104829:	83 c0 08             	add    $0x8,%eax
  10482c:	66 89 45 ca          	mov    %ax,-0x36(%ebp)
  104830:	8b 75 d0             	mov    -0x30(%ebp),%esi
  104833:	8b 5d cc             	mov    -0x34(%ebp),%ebx
  104836:	e9 8f 00 00 00       	jmp    1048ca <tty_render+0xf6>
  10483b:	90                   	nop
  10483c:	0f b6 43 04          	movzbl 0x4(%ebx),%eax
  104840:	8d 44 00 01          	lea    0x1(%eax,%eax,1),%eax
  104844:	0f b6 53 04          	movzbl 0x4(%ebx),%edx
  104848:	8d 54 12 02          	lea    0x2(%edx,%edx,1),%edx
  10484c:	66 89 45 d8          	mov    %ax,-0x28(%ebp)
  104850:	89 d9                	mov    %ebx,%ecx
  104852:	2b 4d cc             	sub    -0x34(%ebp),%ecx
  104855:	66 89 4d da          	mov    %cx,-0x26(%ebp)
  104859:	8b 45 d4             	mov    -0x2c(%ebp),%eax
  10485c:	66 89 45 dc          	mov    %ax,-0x24(%ebp)
  104860:	8a 87 a4 00 00 00    	mov    0xa4(%edi),%al
  104866:	83 e0 0f             	and    $0xf,%eax
  104869:	88 45 d7             	mov    %al,-0x29(%ebp)
  10486c:	8a 45 de             	mov    -0x22(%ebp),%al
  10486f:	83 e0 f0             	and    $0xfffffff0,%eax
  104872:	0a 45 d7             	or     -0x29(%ebp),%al
  104875:	88 45 de             	mov    %al,-0x22(%ebp)
  104878:	66 83 65 de 0f       	andw   $0xf,-0x22(%ebp)
  10487d:	66 89 55 e0          	mov    %dx,-0x20(%ebp)
  104881:	66 89 4d e2          	mov    %cx,-0x1e(%ebp)
  104885:	66 8b 55 ca          	mov    -0x36(%ebp),%dx
  104889:	66 89 55 e4          	mov    %dx,-0x1c(%ebp)
  10488d:	8a 45 e6             	mov    -0x1a(%ebp),%al
  104890:	83 e0 f0             	and    $0xfffffff0,%eax
  104893:	0a 45 d7             	or     -0x29(%ebp),%al
  104896:	88 45 e6             	mov    %al,-0x1a(%ebp)
  104899:	66 83 65 e6 0f       	andw   $0xf,-0x1a(%ebp)
  10489e:	8b 87 a0 00 00 00    	mov    0xa0(%edi),%eax
  1048a4:	8b 50 0c             	mov    0xc(%eax),%edx
  1048a7:	6a 10                	push   $0x10
  1048a9:	8d 4d d8             	lea    -0x28(%ebp),%ecx
  1048ac:	51                   	push   %ecx
  1048ad:	68 00 00 00 01       	push   $0x1000000
  1048b2:	50                   	push   %eax
  1048b3:	ff 52 08             	call   *0x8(%edx)
  1048b6:	83 c4 10             	add    $0x10,%esp
  1048b9:	83 c3 08             	add    $0x8,%ebx
  1048bc:	46                   	inc    %esi
  1048bd:	89 f0                	mov    %esi,%eax
  1048bf:	2b 45 d0             	sub    -0x30(%ebp),%eax
  1048c2:	39 87 ac 00 00 00    	cmp    %eax,0xac(%edi)
  1048c8:	7e 22                	jle    1048ec <tty_render+0x118>
  1048ca:	80 3e 00             	cmpb   $0x0,(%esi)
  1048cd:	74 ea                	je     1048b9 <tty_render+0xe5>
  1048cf:	39 9f bc 00 00 00    	cmp    %ebx,0xbc(%edi)
  1048d5:	0f 85 61 ff ff ff    	jne    10483c <tty_render+0x68>
  1048db:	ba b8 01 00 00       	mov    $0x1b8,%edx
  1048e0:	b8 b7 01 00 00       	mov    $0x1b7,%eax
  1048e5:	e9 62 ff ff ff       	jmp    10484c <tty_render+0x78>
  1048ea:	66 90                	xchg   %ax,%ax
  1048ec:	89 75 d0             	mov    %esi,-0x30(%ebp)
  1048ef:	89 5d cc             	mov    %ebx,-0x34(%ebp)
  1048f2:	ff 45 c4             	incl   -0x3c(%ebp)
  1048f5:	8b 45 c4             	mov    -0x3c(%ebp),%eax
  1048f8:	66 83 45 d4 10       	addw   $0x10,-0x2c(%ebp)
  1048fd:	39 87 a8 00 00 00    	cmp    %eax,0xa8(%edi)
  104903:	0f 8f 0f ff ff ff    	jg     104818 <tty_render+0x44>
  104909:	83 ec 0c             	sub    $0xc,%esp
  10490c:	57                   	push   %edi
  10490d:	a1 c4 80 10 00       	mov    0x1080c4,%eax
  104912:	ff 50 20             	call   *0x20(%eax)
  104915:	83 c4 10             	add    $0x10,%esp
  104918:	8d 65 f4             	lea    -0xc(%ebp),%esp
  10491b:	5b                   	pop    %ebx
  10491c:	5e                   	pop    %esi
  10491d:	5f                   	pop    %edi
  10491e:	5d                   	pop    %ebp
  10491f:	c3                   	ret    

00104920 <tty_read>:
  104920:	55                   	push   %ebp
  104921:	89 e5                	mov    %esp,%ebp
  104923:	57                   	push   %edi
  104924:	56                   	push   %esi
  104925:	53                   	push   %ebx
  104926:	83 ec 28             	sub    $0x28,%esp
  104929:	8b 4d 10             	mov    0x10(%ebp),%ecx
  10492c:	89 4d e4             	mov    %ecx,-0x1c(%ebp)
  10492f:	8b 7d 14             	mov    0x14(%ebp),%edi
  104932:	8b 45 08             	mov    0x8(%ebp),%eax
  104935:	8b 58 08             	mov    0x8(%eax),%ebx
  104938:	8d 43 50             	lea    0x50(%ebx),%eax
  10493b:	50                   	push   %eax
  10493c:	a1 c4 80 10 00       	mov    0x1080c4,%eax
  104941:	ff 50 1c             	call   *0x1c(%eax)
  104944:	89 1c 24             	mov    %ebx,(%esp)
  104947:	a1 c4 80 10 00       	mov    0x1080c4,%eax
  10494c:	ff 50 1c             	call   *0x1c(%eax)
  10494f:	8b 93 c8 00 00 00    	mov    0xc8(%ebx),%edx
  104955:	83 c4 10             	add    $0x10,%esp
  104958:	31 f6                	xor    %esi,%esi
  10495a:	8b 4d e4             	mov    -0x1c(%ebp),%ecx
  10495d:	8a 02                	mov    (%edx),%al
  10495f:	39 fe                	cmp    %edi,%esi
  104961:	73 24                	jae    104987 <tty_read+0x67>
  104963:	90                   	nop
  104964:	84 c0                	test   %al,%al
  104966:	74 30                	je     104998 <tty_read+0x78>
  104968:	88 04 31             	mov    %al,(%ecx,%esi,1)
  10496b:	8b 93 c8 00 00 00    	mov    0xc8(%ebx),%edx
  104971:	42                   	inc    %edx
  104972:	89 93 c8 00 00 00    	mov    %edx,0xc8(%ebx)
  104978:	3b 93 c4 00 00 00    	cmp    0xc4(%ebx),%edx
  10497e:	74 27                	je     1049a7 <tty_read+0x87>
  104980:	46                   	inc    %esi
  104981:	8a 02                	mov    (%edx),%al
  104983:	39 fe                	cmp    %edi,%esi
  104985:	72 dd                	jb     104964 <tty_read+0x44>
  104987:	42                   	inc    %edx
  104988:	89 93 c8 00 00 00    	mov    %edx,0xc8(%ebx)
  10498e:	3b 93 c4 00 00 00    	cmp    0xc4(%ebx),%edx
  104994:	75 1d                	jne    1049b3 <tty_read+0x93>
  104996:	eb 0f                	jmp    1049a7 <tty_read+0x87>
  104998:	42                   	inc    %edx
  104999:	89 93 c8 00 00 00    	mov    %edx,0xc8(%ebx)
  10499f:	3b 93 c4 00 00 00    	cmp    0xc4(%ebx),%edx
  1049a5:	75 19                	jne    1049c0 <tty_read+0xa0>
  1049a7:	8b 93 c0 00 00 00    	mov    0xc0(%ebx),%edx
  1049ad:	89 93 c8 00 00 00    	mov    %edx,0xc8(%ebx)
  1049b3:	84 c0                	test   %al,%al
  1049b5:	74 09                	je     1049c0 <tty_read+0xa0>
  1049b7:	8b 93 c8 00 00 00    	mov    0xc8(%ebx),%edx
  1049bd:	46                   	inc    %esi
  1049be:	eb c1                	jmp    104981 <tty_read+0x61>
  1049c0:	83 ec 0c             	sub    $0xc,%esp
  1049c3:	53                   	push   %ebx
  1049c4:	a1 c4 80 10 00       	mov    0x1080c4,%eax
  1049c9:	ff 50 20             	call   *0x20(%eax)
  1049cc:	89 f0                	mov    %esi,%eax
  1049ce:	8d 65 f4             	lea    -0xc(%ebp),%esp
  1049d1:	5b                   	pop    %ebx
  1049d2:	5e                   	pop    %esi
  1049d3:	5f                   	pop    %edi
  1049d4:	5d                   	pop    %ebp
  1049d5:	c3                   	ret    
  1049d6:	66 90                	xchg   %ax,%ax

001049d8 <tty_init>:
  1049d8:	55                   	push   %ebp
  1049d9:	89 e5                	mov    %esp,%ebp
  1049db:	56                   	push   %esi
  1049dc:	53                   	push   %ebx
  1049dd:	8b 75 08             	mov    0x8(%ebp),%esi
  1049e0:	8b 5e 08             	mov    0x8(%esi),%ebx
  1049e3:	83 ec 0c             	sub    $0xc,%esp
  1049e6:	68 a8 6d 10 00       	push   $0x106da8
  1049eb:	e8 f0 0a 00 00       	call   1054e0 <dev_lookup>
  1049f0:	89 83 a0 00 00 00    	mov    %eax,0xa0(%ebx)
  1049f6:	8b 50 08             	mov    0x8(%eax),%edx
  1049f9:	8b 46 04             	mov    0x4(%esi),%eax
  1049fc:	48                   	dec    %eax
  1049fd:	89 83 a4 00 00 00    	mov    %eax,0xa4(%ebx)
  104a03:	8b 12                	mov    (%edx),%edx
  104a05:	8b 42 04             	mov    0x4(%edx),%eax
  104a08:	c1 e8 04             	shr    $0x4,%eax
  104a0b:	89 83 a8 00 00 00    	mov    %eax,0xa8(%ebx)
  104a11:	8b 12                	mov    (%edx),%edx
  104a13:	c1 ea 03             	shr    $0x3,%edx
  104a16:	89 93 ac 00 00 00    	mov    %edx,0xac(%ebx)
  104a1c:	0f af c2             	imul   %edx,%eax
  104a1f:	89 83 b0 00 00 00    	mov    %eax,0xb0(%ebx)
  104a25:	c1 e0 03             	shl    $0x3,%eax
  104a28:	89 04 24             	mov    %eax,(%esp)
  104a2b:	a1 90 80 10 00       	mov    0x108090,%eax
  104a30:	ff 50 04             	call   *0x4(%eax)
  104a33:	89 83 b4 00 00 00    	mov    %eax,0xb4(%ebx)
  104a39:	58                   	pop    %eax
  104a3a:	ff b3 b0 00 00 00    	pushl  0xb0(%ebx)
  104a40:	a1 90 80 10 00       	mov    0x108090,%eax
  104a45:	ff 50 04             	call   *0x4(%eax)
  104a48:	89 83 d0 00 00 00    	mov    %eax,0xd0(%ebx)
  104a4e:	8b 8b b4 00 00 00    	mov    0xb4(%ebx),%ecx
  104a54:	8b 93 b0 00 00 00    	mov    0xb0(%ebx),%edx
  104a5a:	8d 34 d1             	lea    (%ecx,%edx,8),%esi
  104a5d:	89 b3 b8 00 00 00    	mov    %esi,0xb8(%ebx)
  104a63:	83 c4 10             	add    $0x10,%esp
  104a66:	85 d2                	test   %edx,%edx
  104a68:	7e 2c                	jle    104a96 <tty_init+0xbe>
  104a6a:	31 d2                	xor    %edx,%edx
  104a6c:	eb 08                	jmp    104a76 <tty_init+0x9e>
  104a6e:	66 90                	xchg   %ax,%ax
  104a70:	8b 83 d0 00 00 00    	mov    0xd0(%ebx),%eax
  104a76:	8d 0c d1             	lea    (%ecx,%edx,8),%ecx
  104a79:	c7 01 00 00 00 00    	movl   $0x0,(%ecx)
  104a7f:	c6 41 04 00          	movb   $0x0,0x4(%ecx)
  104a83:	c6 04 10 01          	movb   $0x1,(%eax,%edx,1)
  104a87:	42                   	inc    %edx
  104a88:	39 93 b0 00 00 00    	cmp    %edx,0xb0(%ebx)
  104a8e:	8b 8b b4 00 00 00    	mov    0xb4(%ebx),%ecx
  104a94:	7f da                	jg     104a70 <tty_init+0x98>
  104a96:	89 8b bc 00 00 00    	mov    %ecx,0xbc(%ebx)
  104a9c:	83 ec 0c             	sub    $0xc,%esp
  104a9f:	68 00 04 00 00       	push   $0x400
  104aa4:	a1 90 80 10 00       	mov    0x108090,%eax
  104aa9:	ff 50 04             	call   *0x4(%eax)
  104aac:	89 83 c0 00 00 00    	mov    %eax,0xc0(%ebx)
  104ab2:	89 83 cc 00 00 00    	mov    %eax,0xcc(%ebx)
  104ab8:	89 83 c8 00 00 00    	mov    %eax,0xc8(%ebx)
  104abe:	05 00 04 00 00       	add    $0x400,%eax
  104ac3:	89 83 c4 00 00 00    	mov    %eax,0xc4(%ebx)
  104ac9:	83 c4 0c             	add    $0xc,%esp
  104acc:	6a 01                	push   $0x1
  104ace:	68 ab 6d 10 00       	push   $0x106dab
  104ad3:	53                   	push   %ebx
  104ad4:	a1 c4 80 10 00       	mov    0x1080c4,%eax
  104ad9:	ff 50 18             	call   *0x18(%eax)
  104adc:	83 c4 0c             	add    $0xc,%esp
  104adf:	6a 00                	push   $0x0
  104ae1:	68 b4 6d 10 00       	push   $0x106db4
  104ae6:	83 c3 50             	add    $0x50,%ebx
  104ae9:	53                   	push   %ebx
  104aea:	a1 c4 80 10 00       	mov    0x1080c4,%eax
  104aef:	ff 50 18             	call   *0x18(%eax)
  104af2:	31 c0                	xor    %eax,%eax
  104af4:	8d 65 f8             	lea    -0x8(%ebp),%esp
  104af7:	5b                   	pop    %ebx
  104af8:	5e                   	pop    %esi
  104af9:	5d                   	pop    %ebp
  104afa:	c3                   	ret    
  104afb:	90                   	nop

00104afc <tty_upd_scrollup>:
  104afc:	55                   	push   %ebp
  104afd:	89 e5                	mov    %esp,%ebp
  104aff:	56                   	push   %esi
  104b00:	53                   	push   %ebx
  104b01:	89 c3                	mov    %eax,%ebx
  104b03:	8b 90 ac 00 00 00    	mov    0xac(%eax),%edx
  104b09:	8b 80 a8 00 00 00    	mov    0xa8(%eax),%eax
  104b0f:	8d 70 ff             	lea    -0x1(%eax),%esi
  104b12:	0f af f2             	imul   %edx,%esi
  104b15:	8b 83 b4 00 00 00    	mov    0xb4(%ebx),%eax
  104b1b:	51                   	push   %ecx
  104b1c:	8d 0c f5 00 00 00 00 	lea    0x0(,%esi,8),%ecx
  104b23:	51                   	push   %ecx
  104b24:	8d 14 d0             	lea    (%eax,%edx,8),%edx
  104b27:	52                   	push   %edx
  104b28:	50                   	push   %eax
  104b29:	e8 1e 11 00 00       	call   105c4c <memmove>
  104b2e:	8b 83 d0 00 00 00    	mov    0xd0(%ebx),%eax
  104b34:	83 c4 0c             	add    $0xc,%esp
  104b37:	56                   	push   %esi
  104b38:	8b 93 ac 00 00 00    	mov    0xac(%ebx),%edx
  104b3e:	01 c2                	add    %eax,%edx
  104b40:	52                   	push   %edx
  104b41:	50                   	push   %eax
  104b42:	e8 05 11 00 00       	call   105c4c <memmove>
  104b47:	8b 8b ac 00 00 00    	mov    0xac(%ebx),%ecx
  104b4d:	8d 14 cd 00 00 00 00 	lea    0x0(,%ecx,8),%edx
  104b54:	8b 83 bc 00 00 00    	mov    0xbc(%ebx),%eax
  104b5a:	29 d0                	sub    %edx,%eax
  104b5c:	89 83 bc 00 00 00    	mov    %eax,0xbc(%ebx)
  104b62:	83 c4 10             	add    $0x10,%esp
  104b65:	85 c9                	test   %ecx,%ecx
  104b67:	7e 14                	jle    104b7d <tty_upd_scrollup+0x81>
  104b69:	01 c2                	add    %eax,%edx
  104b6b:	90                   	nop
  104b6c:	c7 00 00 00 00 00    	movl   $0x0,(%eax)
  104b72:	c6 40 04 00          	movb   $0x0,0x4(%eax)
  104b76:	83 c0 08             	add    $0x8,%eax
  104b79:	39 d0                	cmp    %edx,%eax
  104b7b:	75 ef                	jne    104b6c <tty_upd_scrollup+0x70>
  104b7d:	8d 65 f8             	lea    -0x8(%ebp),%esp
  104b80:	5b                   	pop    %ebx
  104b81:	5e                   	pop    %esi
  104b82:	5d                   	pop    %ebp
  104b83:	c3                   	ret    

00104b84 <tty_write>:
  104b84:	55                   	push   %ebp
  104b85:	89 e5                	mov    %esp,%ebp
  104b87:	57                   	push   %edi
  104b88:	56                   	push   %esi
  104b89:	53                   	push   %ebx
  104b8a:	83 ec 28             	sub    $0x28,%esp
  104b8d:	8b 45 08             	mov    0x8(%ebp),%eax
  104b90:	8b 78 08             	mov    0x8(%eax),%edi
  104b93:	57                   	push   %edi
  104b94:	a1 c4 80 10 00       	mov    0x1080c4,%eax
  104b99:	ff 50 1c             	call   *0x1c(%eax)
  104b9c:	83 c4 10             	add    $0x10,%esp
  104b9f:	8b 45 14             	mov    0x14(%ebp),%eax
  104ba2:	85 c0                	test   %eax,%eax
  104ba4:	0f 84 47 01 00 00    	je     104cf1 <tty_write+0x16d>
  104baa:	8b 75 10             	mov    0x10(%ebp),%esi
  104bad:	8b 45 14             	mov    0x14(%ebp),%eax
  104bb0:	01 f0                	add    %esi,%eax
  104bb2:	89 45 e0             	mov    %eax,-0x20(%ebp)
  104bb5:	eb 5f                	jmp    104c16 <tty_write+0x92>
  104bb7:	90                   	nop
  104bb8:	3c 0d                	cmp    $0xd,%al
  104bba:	0f 84 9c 01 00 00    	je     104d5c <tty_write+0x1d8>
  104bc0:	3c 08                	cmp    $0x8,%al
  104bc2:	0f 84 48 01 00 00    	je     104d10 <tty_write+0x18c>
  104bc8:	88 41 04             	mov    %al,0x4(%ecx)
  104bcb:	8d 41 08             	lea    0x8(%ecx),%eax
  104bce:	89 87 bc 00 00 00    	mov    %eax,0xbc(%edi)
  104bd4:	3b 87 b8 00 00 00    	cmp    0xb8(%edi),%eax
  104bda:	0f 84 e8 01 00 00    	je     104dc8 <tty_write+0x244>
  104be0:	2b 8f b4 00 00 00    	sub    0xb4(%edi),%ecx
  104be6:	c1 f9 03             	sar    $0x3,%ecx
  104be9:	8b 87 d0 00 00 00    	mov    0xd0(%edi),%eax
  104bef:	c6 04 08 01          	movb   $0x1,(%eax,%ecx,1)
  104bf3:	8b 87 bc 00 00 00    	mov    0xbc(%edi),%eax
  104bf9:	2b 87 b4 00 00 00    	sub    0xb4(%edi),%eax
  104bff:	c1 f8 03             	sar    $0x3,%eax
  104c02:	8b 97 d0 00 00 00    	mov    0xd0(%edi),%edx
  104c08:	c6 04 02 01          	movb   $0x1,(%edx,%eax,1)
  104c0c:	46                   	inc    %esi
  104c0d:	39 75 e0             	cmp    %esi,-0x20(%ebp)
  104c10:	0f 84 db 00 00 00    	je     104cf1 <tty_write+0x16d>
  104c16:	8a 06                	mov    (%esi),%al
  104c18:	8b 8f bc 00 00 00    	mov    0xbc(%edi),%ecx
  104c1e:	3c 0a                	cmp    $0xa,%al
  104c20:	75 96                	jne    104bb8 <tty_write+0x34>
  104c22:	8b 9f b4 00 00 00    	mov    0xb4(%edi),%ebx
  104c28:	8b 97 ac 00 00 00    	mov    0xac(%edi),%edx
  104c2e:	89 c8                	mov    %ecx,%eax
  104c30:	29 d8                	sub    %ebx,%eax
  104c32:	c1 f8 03             	sar    $0x3,%eax
  104c35:	89 55 e4             	mov    %edx,-0x1c(%ebp)
  104c38:	99                   	cltd   
  104c39:	f7 7d e4             	idivl  -0x1c(%ebp)
  104c3c:	c1 e2 03             	shl    $0x3,%edx
  104c3f:	29 d1                	sub    %edx,%ecx
  104c41:	8b 55 e4             	mov    -0x1c(%ebp),%edx
  104c44:	8d 04 d1             	lea    (%ecx,%edx,8),%eax
  104c47:	89 87 bc 00 00 00    	mov    %eax,0xbc(%edi)
  104c4d:	3b 87 b8 00 00 00    	cmp    0xb8(%edi),%eax
  104c53:	0f 84 ab 01 00 00    	je     104e04 <tty_write+0x280>
  104c59:	89 c8                	mov    %ecx,%eax
  104c5b:	29 d8                	sub    %ebx,%eax
  104c5d:	c1 f8 03             	sar    $0x3,%eax
  104c60:	99                   	cltd   
  104c61:	f7 7d e4             	idivl  -0x1c(%ebp)
  104c64:	8b 45 e4             	mov    -0x1c(%ebp),%eax
  104c67:	85 c0                	test   %eax,%eax
  104c69:	7e a1                	jle    104c0c <tty_write+0x88>
  104c6b:	f7 da                	neg    %edx
  104c6d:	8d 14 d1             	lea    (%ecx,%edx,8),%edx
  104c70:	31 c0                	xor    %eax,%eax
  104c72:	eb 06                	jmp    104c7a <tty_write+0xf6>
  104c74:	8b 9f b4 00 00 00    	mov    0xb4(%edi),%ebx
  104c7a:	89 d1                	mov    %edx,%ecx
  104c7c:	29 d9                	sub    %ebx,%ecx
  104c7e:	c1 f9 03             	sar    $0x3,%ecx
  104c81:	8b 9f d0 00 00 00    	mov    0xd0(%edi),%ebx
  104c87:	c6 04 0b 01          	movb   $0x1,(%ebx,%ecx,1)
  104c8b:	40                   	inc    %eax
  104c8c:	8b 8f ac 00 00 00    	mov    0xac(%edi),%ecx
  104c92:	83 c2 08             	add    $0x8,%edx
  104c95:	39 c8                	cmp    %ecx,%eax
  104c97:	7c db                	jl     104c74 <tty_write+0xf0>
  104c99:	8b 87 bc 00 00 00    	mov    0xbc(%edi),%eax
  104c9f:	8b 9f b4 00 00 00    	mov    0xb4(%edi),%ebx
  104ca5:	89 45 e4             	mov    %eax,-0x1c(%ebp)
  104ca8:	29 d8                	sub    %ebx,%eax
  104caa:	c1 f8 03             	sar    $0x3,%eax
  104cad:	99                   	cltd   
  104cae:	f7 f9                	idiv   %ecx
  104cb0:	85 c9                	test   %ecx,%ecx
  104cb2:	0f 8e 54 ff ff ff    	jle    104c0c <tty_write+0x88>
  104cb8:	f7 da                	neg    %edx
  104cba:	8b 45 e4             	mov    -0x1c(%ebp),%eax
  104cbd:	8d 0c d0             	lea    (%eax,%edx,8),%ecx
  104cc0:	31 d2                	xor    %edx,%edx
  104cc2:	eb 06                	jmp    104cca <tty_write+0x146>
  104cc4:	8b 9f b4 00 00 00    	mov    0xb4(%edi),%ebx
  104cca:	89 c8                	mov    %ecx,%eax
  104ccc:	29 d8                	sub    %ebx,%eax
  104cce:	c1 f8 03             	sar    $0x3,%eax
  104cd1:	8b 9f d0 00 00 00    	mov    0xd0(%edi),%ebx
  104cd7:	c6 04 03 01          	movb   $0x1,(%ebx,%eax,1)
  104cdb:	42                   	inc    %edx
  104cdc:	83 c1 08             	add    $0x8,%ecx
  104cdf:	3b 97 ac 00 00 00    	cmp    0xac(%edi),%edx
  104ce5:	7c dd                	jl     104cc4 <tty_write+0x140>
  104ce7:	46                   	inc    %esi
  104ce8:	39 75 e0             	cmp    %esi,-0x20(%ebp)
  104ceb:	0f 85 25 ff ff ff    	jne    104c16 <tty_write+0x92>
  104cf1:	83 ec 0c             	sub    $0xc,%esp
  104cf4:	57                   	push   %edi
  104cf5:	a1 c4 80 10 00       	mov    0x1080c4,%eax
  104cfa:	ff 50 20             	call   *0x20(%eax)
  104cfd:	89 f8                	mov    %edi,%eax
  104cff:	e8 d0 fa ff ff       	call   1047d4 <tty_render>
  104d04:	8b 45 14             	mov    0x14(%ebp),%eax
  104d07:	8d 65 f4             	lea    -0xc(%ebp),%esp
  104d0a:	5b                   	pop    %ebx
  104d0b:	5e                   	pop    %esi
  104d0c:	5f                   	pop    %edi
  104d0d:	5d                   	pop    %ebp
  104d0e:	c3                   	ret    
  104d0f:	90                   	nop
  104d10:	8b 87 b4 00 00 00    	mov    0xb4(%edi),%eax
  104d16:	39 c8                	cmp    %ecx,%eax
  104d18:	73 0f                	jae    104d29 <tty_write+0x1a5>
  104d1a:	8d 51 f8             	lea    -0x8(%ecx),%edx
  104d1d:	89 97 bc 00 00 00    	mov    %edx,0xbc(%edi)
  104d23:	c6 41 fc 00          	movb   $0x0,-0x4(%ecx)
  104d27:	89 d1                	mov    %edx,%ecx
  104d29:	29 c1                	sub    %eax,%ecx
  104d2b:	c1 f9 03             	sar    $0x3,%ecx
  104d2e:	8b 87 d0 00 00 00    	mov    0xd0(%edi),%eax
  104d34:	c6 04 08 01          	movb   $0x1,(%eax,%ecx,1)
  104d38:	8b 87 bc 00 00 00    	mov    0xbc(%edi),%eax
  104d3e:	83 c0 08             	add    $0x8,%eax
  104d41:	2b 87 b4 00 00 00    	sub    0xb4(%edi),%eax
  104d47:	c1 f8 03             	sar    $0x3,%eax
  104d4a:	8b 97 d0 00 00 00    	mov    0xd0(%edi),%edx
  104d50:	c6 04 02 01          	movb   $0x1,(%edx,%eax,1)
  104d54:	e9 b3 fe ff ff       	jmp    104c0c <tty_write+0x88>
  104d59:	8d 76 00             	lea    0x0(%esi),%esi
  104d5c:	8b 9f b4 00 00 00    	mov    0xb4(%edi),%ebx
  104d62:	89 c8                	mov    %ecx,%eax
  104d64:	29 d8                	sub    %ebx,%eax
  104d66:	c1 f8 03             	sar    $0x3,%eax
  104d69:	99                   	cltd   
  104d6a:	f7 bf ac 00 00 00    	idivl  0xac(%edi)
  104d70:	c1 e2 03             	shl    $0x3,%edx
  104d73:	29 d1                	sub    %edx,%ecx
  104d75:	89 8f bc 00 00 00    	mov    %ecx,0xbc(%edi)
  104d7b:	89 c8                	mov    %ecx,%eax
  104d7d:	29 d8                	sub    %ebx,%eax
  104d7f:	c1 f8 03             	sar    $0x3,%eax
  104d82:	99                   	cltd   
  104d83:	f7 bf ac 00 00 00    	idivl  0xac(%edi)
  104d89:	8b 87 ac 00 00 00    	mov    0xac(%edi),%eax
  104d8f:	85 c0                	test   %eax,%eax
  104d91:	0f 8e 75 fe ff ff    	jle    104c0c <tty_write+0x88>
  104d97:	f7 da                	neg    %edx
  104d99:	8d 0c d1             	lea    (%ecx,%edx,8),%ecx
  104d9c:	31 d2                	xor    %edx,%edx
  104d9e:	eb 06                	jmp    104da6 <tty_write+0x222>
  104da0:	8b 9f b4 00 00 00    	mov    0xb4(%edi),%ebx
  104da6:	89 c8                	mov    %ecx,%eax
  104da8:	29 d8                	sub    %ebx,%eax
  104daa:	c1 f8 03             	sar    $0x3,%eax
  104dad:	8b 9f d0 00 00 00    	mov    0xd0(%edi),%ebx
  104db3:	c6 04 03 01          	movb   $0x1,(%ebx,%eax,1)
  104db7:	42                   	inc    %edx
  104db8:	83 c1 08             	add    $0x8,%ecx
  104dbb:	3b 97 ac 00 00 00    	cmp    0xac(%edi),%edx
  104dc1:	7c dd                	jl     104da0 <tty_write+0x21c>
  104dc3:	e9 44 fe ff ff       	jmp    104c0c <tty_write+0x88>
  104dc8:	89 f8                	mov    %edi,%eax
  104dca:	e8 2d fd ff ff       	call   104afc <tty_upd_scrollup>
  104dcf:	8b 87 b0 00 00 00    	mov    0xb0(%edi),%eax
  104dd5:	85 c0                	test   %eax,%eax
  104dd7:	0f 8e 2f fe ff ff    	jle    104c0c <tty_write+0x88>
  104ddd:	31 d2                	xor    %edx,%edx
  104ddf:	31 c0                	xor    %eax,%eax
  104de1:	8d 76 00             	lea    0x0(%esi),%esi
  104de4:	89 d1                	mov    %edx,%ecx
  104de6:	c1 f9 03             	sar    $0x3,%ecx
  104de9:	8b 9f d0 00 00 00    	mov    0xd0(%edi),%ebx
  104def:	c6 04 0b 01          	movb   $0x1,(%ebx,%ecx,1)
  104df3:	40                   	inc    %eax
  104df4:	83 c2 08             	add    $0x8,%edx
  104df7:	3b 87 b0 00 00 00    	cmp    0xb0(%edi),%eax
  104dfd:	7c e5                	jl     104de4 <tty_write+0x260>
  104dff:	e9 08 fe ff ff       	jmp    104c0c <tty_write+0x88>
  104e04:	89 f8                	mov    %edi,%eax
  104e06:	e8 f1 fc ff ff       	call   104afc <tty_upd_scrollup>
  104e0b:	8b 87 b0 00 00 00    	mov    0xb0(%edi),%eax
  104e11:	85 c0                	test   %eax,%eax
  104e13:	0f 8e f3 fd ff ff    	jle    104c0c <tty_write+0x88>
  104e19:	31 d2                	xor    %edx,%edx
  104e1b:	31 c0                	xor    %eax,%eax
  104e1d:	8d 76 00             	lea    0x0(%esi),%esi
  104e20:	89 d1                	mov    %edx,%ecx
  104e22:	c1 f9 03             	sar    $0x3,%ecx
  104e25:	8b 9f d0 00 00 00    	mov    0xd0(%edi),%ebx
  104e2b:	c6 04 0b 01          	movb   $0x1,(%ebx,%ecx,1)
  104e2f:	40                   	inc    %eax
  104e30:	83 c2 08             	add    $0x8,%edx
  104e33:	3b 87 b0 00 00 00    	cmp    0xb0(%edi),%eax
  104e39:	7c e5                	jl     104e20 <tty_write+0x29c>
  104e3b:	e9 cc fd ff ff       	jmp    104c0c <tty_write+0x88>

00104e40 <tty_enqueue>:
  104e40:	55                   	push   %ebp
  104e41:	89 e5                	mov    %esp,%ebp
  104e43:	53                   	push   %ebx
  104e44:	51                   	push   %ecx
  104e45:	8b 48 0c             	mov    0xc(%eax),%ecx
  104e48:	8d 59 01             	lea    0x1(%ecx),%ebx
  104e4b:	89 58 0c             	mov    %ebx,0xc(%eax)
  104e4e:	88 11                	mov    %dl,(%ecx)
  104e50:	8b 50 0c             	mov    0xc(%eax),%edx
  104e53:	3b 50 04             	cmp    0x4(%eax),%edx
  104e56:	74 10                	je     104e68 <tty_enqueue+0x28>
  104e58:	39 50 08             	cmp    %edx,0x8(%eax)
  104e5b:	74 12                	je     104e6f <tty_enqueue+0x2f>
  104e5d:	c6 02 00             	movb   $0x0,(%edx)
  104e60:	8b 5d fc             	mov    -0x4(%ebp),%ebx
  104e63:	c9                   	leave  
  104e64:	c3                   	ret    
  104e65:	8d 76 00             	lea    0x0(%esi),%esi
  104e68:	8b 10                	mov    (%eax),%edx
  104e6a:	89 50 0c             	mov    %edx,0xc(%eax)
  104e6d:	eb e9                	jmp    104e58 <tty_enqueue+0x18>
  104e6f:	bb ad 64 10 00       	mov    $0x1064ad,%ebx
  104e74:	b8 41 00 00 00       	mov    $0x41,%eax
  104e79:	83 ec 0c             	sub    $0xc,%esp
  104e7c:	50                   	push   %eax
  104e7d:	e8 7e b1 ff ff       	call   100000 <_putc>
  104e82:	43                   	inc    %ebx
  104e83:	0f be 03             	movsbl (%ebx),%eax
  104e86:	83 c4 10             	add    $0x10,%esp
  104e89:	84 c0                	test   %al,%al
  104e8b:	75 ec                	jne    104e79 <tty_enqueue+0x39>
  104e8d:	bb c5 6d 10 00       	mov    $0x106dc5,%ebx
  104e92:	b8 74 00 00 00       	mov    $0x74,%eax
  104e97:	83 ec 0c             	sub    $0xc,%esp
  104e9a:	50                   	push   %eax
  104e9b:	e8 60 b1 ff ff       	call   100000 <_putc>
  104ea0:	43                   	inc    %ebx
  104ea1:	0f be 03             	movsbl (%ebx),%eax
  104ea4:	83 c4 10             	add    $0x10,%esp
  104ea7:	84 c0                	test   %al,%al
  104ea9:	75 ec                	jne    104e97 <tty_enqueue+0x57>
  104eab:	bb 08 6e 10 00       	mov    $0x106e08,%ebx
  104eb0:	b8 20 00 00 00       	mov    $0x20,%eax
  104eb5:	83 ec 0c             	sub    $0xc,%esp
  104eb8:	50                   	push   %eax
  104eb9:	e8 42 b1 ff ff       	call   100000 <_putc>
  104ebe:	43                   	inc    %ebx
  104ebf:	0f be 03             	movsbl (%ebx),%eax
  104ec2:	83 c4 10             	add    $0x10,%esp
  104ec5:	84 c0                	test   %al,%al
  104ec7:	75 ec                	jne    104eb5 <tty_enqueue+0x75>
  104ec9:	83 ec 0c             	sub    $0xc,%esp
  104ecc:	6a 01                	push   $0x1
  104ece:	e8 3d b1 ff ff       	call   100010 <_halt>
  104ed3:	90                   	nop

00104ed4 <tty_defaultch>:
  104ed4:	55                   	push   %ebp
  104ed5:	89 e5                	mov    %esp,%ebp
  104ed7:	8b 45 08             	mov    0x8(%ebp),%eax
  104eda:	c7 00 00 00 00 00    	movl   $0x0,(%eax)
  104ee0:	c6 40 04 00          	movb   $0x0,0x4(%eax)
  104ee4:	5d                   	pop    %ebp
  104ee5:	c2 04 00             	ret    $0x4

00104ee8 <tty_task>:
  104ee8:	55                   	push   %ebp
  104ee9:	89 e5                	mov    %esp,%ebp
  104eeb:	57                   	push   %edi
  104eec:	56                   	push   %esi
  104eed:	53                   	push   %ebx
  104eee:	83 ec 48             	sub    $0x48,%esp
  104ef1:	68 93 6c 10 00       	push   $0x106c93
  104ef6:	e8 e5 05 00 00       	call   1054e0 <dev_lookup>
  104efb:	89 c7                	mov    %eax,%edi
  104efd:	c7 04 24 d4 6d 10 00 	movl   $0x106dd4,(%esp)
  104f04:	e8 d7 05 00 00       	call   1054e0 <dev_lookup>
  104f09:	89 c3                	mov    %eax,%ebx
  104f0b:	c7 04 24 a8 6d 10 00 	movl   $0x106da8,(%esp)
  104f12:	e8 c9 05 00 00       	call   1054e0 <dev_lookup>
  104f17:	89 45 c0             	mov    %eax,-0x40(%ebp)
  104f1a:	8b 43 08             	mov    0x8(%ebx),%eax
  104f1d:	e8 b2 f8 ff ff       	call   1047d4 <tty_render>
  104f22:	83 c4 10             	add    $0x10,%esp
  104f25:	8d 76 00             	lea    0x0(%esi),%esi
  104f28:	8b 47 0c             	mov    0xc(%edi),%eax
  104f2b:	6a 04                	push   $0x4
  104f2d:	8d 4d cc             	lea    -0x34(%ebp),%ecx
  104f30:	51                   	push   %ecx
  104f31:	6a 00                	push   $0x0
  104f33:	57                   	push   %edi
  104f34:	ff 50 04             	call   *0x4(%eax)
  104f37:	83 c4 10             	add    $0x10,%esp
  104f3a:	85 c0                	test   %eax,%eax
  104f3c:	0f 8e 7e 01 00 00    	jle    1050c0 <tty_task+0x1d8>
  104f42:	8a 45 cc             	mov    -0x34(%ebp),%al
  104f45:	a8 02                	test   $0x2,%al
  104f47:	0f 84 bf 00 00 00    	je     10500c <tty_task+0x124>
  104f4d:	8b 45 cc             	mov    -0x34(%ebp),%eax
  104f50:	25 fc ff 03 00       	and    $0x3fffc,%eax
  104f55:	3d c4 00 00 00       	cmp    $0xc4,%eax
  104f5a:	0f 84 ad 02 00 00    	je     10520d <tty_task+0x325>
  104f60:	89 de                	mov    %ebx,%esi
  104f62:	3d c8 00 00 00       	cmp    $0xc8,%eax
  104f67:	0f 84 81 02 00 00    	je     1051ee <tty_task+0x306>
  104f6d:	3d cc 00 00 00       	cmp    $0xcc,%eax
  104f72:	0f 84 57 02 00 00    	je     1051cf <tty_task+0x2e7>
  104f78:	3d d0 00 00 00       	cmp    $0xd0,%eax
  104f7d:	0f 84 2d 02 00 00    	je     1051b0 <tty_task+0x2c8>
  104f83:	3d dc 00 00 00       	cmp    $0xdc,%eax
  104f88:	0f 84 f5 01 00 00    	je     105183 <tty_task+0x29b>
  104f8e:	39 f3                	cmp    %esi,%ebx
  104f90:	0f 84 22 01 00 00    	je     1050b8 <tty_task+0x1d0>
  104f96:	8b 4e 08             	mov    0x8(%esi),%ecx
  104f99:	31 c0                	xor    %eax,%eax
  104f9b:	c7 44 05 d0 00 00 00 	movl   $0x0,-0x30(%ebp,%eax,1)
  104fa2:	00 
  104fa3:	83 c0 04             	add    $0x4,%eax
  104fa6:	83 f8 18             	cmp    $0x18,%eax
  104fa9:	72 f0                	jb     104f9b <tty_task+0xb3>
  104fab:	8b 81 a4 00 00 00    	mov    0xa4(%ecx),%eax
  104fb1:	89 45 dc             	mov    %eax,-0x24(%ebp)
  104fb4:	83 b9 b0 00 00 00 00 	cmpl   $0x0,0xb0(%ecx)
  104fbb:	7e 25                	jle    104fe2 <tty_task+0xfa>
  104fbd:	31 d2                	xor    %edx,%edx
  104fbf:	31 c0                	xor    %eax,%eax
  104fc1:	89 75 c4             	mov    %esi,-0x3c(%ebp)
  104fc4:	89 d3                	mov    %edx,%ebx
  104fc6:	c1 fb 03             	sar    $0x3,%ebx
  104fc9:	8b b1 d0 00 00 00    	mov    0xd0(%ecx),%esi
  104fcf:	c6 04 1e 01          	movb   $0x1,(%esi,%ebx,1)
  104fd3:	40                   	inc    %eax
  104fd4:	83 c2 08             	add    $0x8,%edx
  104fd7:	3b 81 b0 00 00 00    	cmp    0xb0(%ecx),%eax
  104fdd:	7c e5                	jl     104fc4 <tty_task+0xdc>
  104fdf:	8b 75 c4             	mov    -0x3c(%ebp),%esi
  104fe2:	8b 4d c0             	mov    -0x40(%ebp),%ecx
  104fe5:	8b 41 0c             	mov    0xc(%ecx),%eax
  104fe8:	6a 18                	push   $0x18
  104fea:	8d 55 d0             	lea    -0x30(%ebp),%edx
  104fed:	52                   	push   %edx
  104fee:	6a 00                	push   $0x0
  104ff0:	51                   	push   %ecx
  104ff1:	ff 50 08             	call   *0x8(%eax)
  104ff4:	8b 46 0c             	mov    0xc(%esi),%eax
  104ff7:	6a 00                	push   $0x0
  104ff9:	68 eb 65 10 00       	push   $0x1065eb
  104ffe:	6a 00                	push   $0x0
  105000:	56                   	push   %esi
  105001:	ff 50 08             	call   *0x8(%eax)
  105004:	8a 45 cc             	mov    -0x34(%ebp),%al
  105007:	83 c4 20             	add    $0x20,%esp
  10500a:	89 f3                	mov    %esi,%ebx
  10500c:	a8 01                	test   $0x1,%al
  10500e:	74 15                	je     105025 <tty_task+0x13d>
  105010:	8b 55 cc             	mov    -0x34(%ebp),%edx
  105013:	81 e2 fc ff 03 00    	and    $0x3fffc,%edx
  105019:	81 fa 8c 01 00 00    	cmp    $0x18c,%edx
  10501f:	0f 84 73 01 00 00    	je     105198 <tty_task+0x2b0>
  105025:	a8 03                	test   $0x3,%al
  105027:	0f 85 fb fe ff ff    	jne    104f28 <tty_task+0x40>
  10502d:	8b 55 cc             	mov    -0x34(%ebp),%edx
  105030:	c1 ea 02             	shr    $0x2,%edx
  105033:	88 55 d0             	mov    %dl,-0x30(%ebp)
  105036:	89 55 c4             	mov    %edx,-0x3c(%ebp)
  105039:	8b 73 08             	mov    0x8(%ebx),%esi
  10503c:	83 ec 0c             	sub    $0xc,%esp
  10503f:	56                   	push   %esi
  105040:	a1 c4 80 10 00       	mov    0x1080c4,%eax
  105045:	ff 50 1c             	call   *0x1c(%eax)
  105048:	8d 8e c0 00 00 00    	lea    0xc0(%esi),%ecx
  10504e:	83 c4 10             	add    $0x10,%esp
  105051:	8b 55 c4             	mov    -0x3c(%ebp),%edx
  105054:	80 fa 08             	cmp    $0x8,%dl
  105057:	0f 84 eb 00 00 00    	je     105148 <tty_task+0x260>
  10505d:	80 fa 0a             	cmp    $0xa,%dl
  105060:	0f 85 c4 00 00 00    	jne    10512a <tty_task+0x242>
  105066:	ba 0a 00 00 00       	mov    $0xa,%edx
  10506b:	89 c8                	mov    %ecx,%eax
  10506d:	89 4d c4             	mov    %ecx,-0x3c(%ebp)
  105070:	e8 cb fd ff ff       	call   104e40 <tty_enqueue>
  105075:	31 d2                	xor    %edx,%edx
  105077:	8b 4d c4             	mov    -0x3c(%ebp),%ecx
  10507a:	89 c8                	mov    %ecx,%eax
  10507c:	e8 bf fd ff ff       	call   104e40 <tty_enqueue>
  105081:	83 ec 0c             	sub    $0xc,%esp
  105084:	8d 46 50             	lea    0x50(%esi),%eax
  105087:	50                   	push   %eax
  105088:	a1 c4 80 10 00       	mov    0x1080c4,%eax
  10508d:	ff 50 20             	call   *0x20(%eax)
  105090:	89 34 24             	mov    %esi,(%esp)
  105093:	a1 c4 80 10 00       	mov    0x1080c4,%eax
  105098:	ff 50 20             	call   *0x20(%eax)
  10509b:	83 c4 10             	add    $0x10,%esp
  10509e:	8b 43 0c             	mov    0xc(%ebx),%eax
  1050a1:	6a 01                	push   $0x1
  1050a3:	8d 75 d0             	lea    -0x30(%ebp),%esi
  1050a6:	56                   	push   %esi
  1050a7:	6a 00                	push   $0x0
  1050a9:	53                   	push   %ebx
  1050aa:	ff 50 08             	call   *0x8(%eax)
  1050ad:	83 c4 10             	add    $0x10,%esp
  1050b0:	e9 73 fe ff ff       	jmp    104f28 <tty_task+0x40>
  1050b5:	8d 76 00             	lea    0x0(%esi),%esi
  1050b8:	8a 45 cc             	mov    -0x34(%ebp),%al
  1050bb:	e9 4c ff ff ff       	jmp    10500c <tty_task+0x124>
  1050c0:	bb ad 64 10 00       	mov    $0x1064ad,%ebx
  1050c5:	b8 41 00 00 00       	mov    $0x41,%eax
  1050ca:	66 90                	xchg   %ax,%ax
  1050cc:	83 ec 0c             	sub    $0xc,%esp
  1050cf:	50                   	push   %eax
  1050d0:	e8 2b af ff ff       	call   100000 <_putc>
  1050d5:	43                   	inc    %ebx
  1050d6:	0f be 03             	movsbl (%ebx),%eax
  1050d9:	83 c4 10             	add    $0x10,%esp
  1050dc:	84 c0                	test   %al,%al
  1050de:	75 ec                	jne    1050cc <tty_task+0x1e4>
  1050e0:	bb 01 67 10 00       	mov    $0x106701,%ebx
  1050e5:	b8 65 00 00 00       	mov    $0x65,%eax
  1050ea:	66 90                	xchg   %ax,%ax
  1050ec:	83 ec 0c             	sub    $0xc,%esp
  1050ef:	50                   	push   %eax
  1050f0:	e8 0b af ff ff       	call   100000 <_putc>
  1050f5:	43                   	inc    %ebx
  1050f6:	0f be 03             	movsbl (%ebx),%eax
  1050f9:	83 c4 10             	add    $0x10,%esp
  1050fc:	84 c0                	test   %al,%al
  1050fe:	75 ec                	jne    1050ec <tty_task+0x204>
  105100:	bb 28 6e 10 00       	mov    $0x106e28,%ebx
  105105:	b8 20 00 00 00       	mov    $0x20,%eax
  10510a:	66 90                	xchg   %ax,%ax
  10510c:	83 ec 0c             	sub    $0xc,%esp
  10510f:	50                   	push   %eax
  105110:	e8 eb ae ff ff       	call   100000 <_putc>
  105115:	43                   	inc    %ebx
  105116:	0f be 03             	movsbl (%ebx),%eax
  105119:	83 c4 10             	add    $0x10,%esp
  10511c:	84 c0                	test   %al,%al
  10511e:	75 ec                	jne    10510c <tty_task+0x224>
  105120:	83 ec 0c             	sub    $0xc,%esp
  105123:	6a 01                	push   $0x1
  105125:	e8 e6 ae ff ff       	call   100010 <_halt>
  10512a:	0f be d2             	movsbl %dl,%edx
  10512d:	89 c8                	mov    %ecx,%eax
  10512f:	e8 0c fd ff ff       	call   104e40 <tty_enqueue>
  105134:	83 ec 0c             	sub    $0xc,%esp
  105137:	56                   	push   %esi
  105138:	a1 c4 80 10 00       	mov    0x1080c4,%eax
  10513d:	ff 50 20             	call   *0x20(%eax)
  105140:	83 c4 10             	add    $0x10,%esp
  105143:	e9 56 ff ff ff       	jmp    10509e <tty_task+0x1b6>
  105148:	8b 86 c4 00 00 00    	mov    0xc4(%esi),%eax
  10514e:	39 86 c8 00 00 00    	cmp    %eax,0xc8(%esi)
  105154:	0f 84 d2 00 00 00    	je     10522c <tty_task+0x344>
  10515a:	8b 96 cc 00 00 00    	mov    0xcc(%esi),%edx
  105160:	3b 96 c0 00 00 00    	cmp    0xc0(%esi),%edx
  105166:	74 02                	je     10516a <tty_task+0x282>
  105168:	89 d0                	mov    %edx,%eax
  10516a:	80 78 ff 00          	cmpb   $0x0,-0x1(%eax)
  10516e:	0f 84 b8 00 00 00    	je     10522c <tty_task+0x344>
  105174:	8d 50 ff             	lea    -0x1(%eax),%edx
  105177:	89 96 cc 00 00 00    	mov    %edx,0xcc(%esi)
  10517d:	c6 40 ff 00          	movb   $0x0,-0x1(%eax)
  105181:	eb b1                	jmp    105134 <tty_task+0x24c>
  105183:	83 ec 0c             	sub    $0xc,%esp
  105186:	68 e8 6d 10 00       	push   $0x106de8
  10518b:	e8 a0 05 00 00       	call   105730 <printf>
  105190:	83 c4 10             	add    $0x10,%esp
  105193:	e9 f6 fd ff ff       	jmp    104f8e <tty_task+0xa6>
  105198:	83 ec 0c             	sub    $0xc,%esp
  10519b:	68 fc 6d 10 00       	push   $0x106dfc
  1051a0:	e8 8b 05 00 00       	call   105730 <printf>
  1051a5:	8a 45 cc             	mov    -0x34(%ebp),%al
  1051a8:	83 c4 10             	add    $0x10,%esp
  1051ab:	e9 75 fe ff ff       	jmp    105025 <tty_task+0x13d>
  1051b0:	83 ec 0c             	sub    $0xc,%esp
  1051b3:	68 e3 6d 10 00       	push   $0x106de3
  1051b8:	e8 23 03 00 00       	call   1054e0 <dev_lookup>
  1051bd:	89 c6                	mov    %eax,%esi
  1051bf:	8b 45 cc             	mov    -0x34(%ebp),%eax
  1051c2:	25 fc ff 03 00       	and    $0x3fffc,%eax
  1051c7:	83 c4 10             	add    $0x10,%esp
  1051ca:	e9 b4 fd ff ff       	jmp    104f83 <tty_task+0x9b>
  1051cf:	83 ec 0c             	sub    $0xc,%esp
  1051d2:	68 de 6d 10 00       	push   $0x106dde
  1051d7:	e8 04 03 00 00       	call   1054e0 <dev_lookup>
  1051dc:	89 c6                	mov    %eax,%esi
  1051de:	8b 45 cc             	mov    -0x34(%ebp),%eax
  1051e1:	25 fc ff 03 00       	and    $0x3fffc,%eax
  1051e6:	83 c4 10             	add    $0x10,%esp
  1051e9:	e9 8a fd ff ff       	jmp    104f78 <tty_task+0x90>
  1051ee:	83 ec 0c             	sub    $0xc,%esp
  1051f1:	68 d9 6d 10 00       	push   $0x106dd9
  1051f6:	e8 e5 02 00 00       	call   1054e0 <dev_lookup>
  1051fb:	89 c6                	mov    %eax,%esi
  1051fd:	8b 45 cc             	mov    -0x34(%ebp),%eax
  105200:	25 fc ff 03 00       	and    $0x3fffc,%eax
  105205:	83 c4 10             	add    $0x10,%esp
  105208:	e9 60 fd ff ff       	jmp    104f6d <tty_task+0x85>
  10520d:	83 ec 0c             	sub    $0xc,%esp
  105210:	68 d4 6d 10 00       	push   $0x106dd4
  105215:	e8 c6 02 00 00       	call   1054e0 <dev_lookup>
  10521a:	89 c6                	mov    %eax,%esi
  10521c:	8b 45 cc             	mov    -0x34(%ebp),%eax
  10521f:	25 fc ff 03 00       	and    $0x3fffc,%eax
  105224:	83 c4 10             	add    $0x10,%esp
  105227:	e9 36 fd ff ff       	jmp    104f62 <tty_task+0x7a>
  10522c:	83 ec 0c             	sub    $0xc,%esp
  10522f:	56                   	push   %esi
  105230:	a1 c4 80 10 00       	mov    0x1080c4,%eax
  105235:	ff 50 20             	call   *0x20(%eax)
  105238:	83 c4 10             	add    $0x10,%esp
  10523b:	e9 e8 fc ff ff       	jmp    104f28 <tty_task+0x40>

00105240 <dev_init>:
  105240:	55                   	push   %ebp
  105241:	89 e5                	mov    %esp,%ebp
  105243:	53                   	push   %ebx
  105244:	83 ec 10             	sub    $0x10,%esp
  105247:	6a 08                	push   $0x8
  105249:	a1 90 80 10 00       	mov    0x108090,%eax
  10524e:	ff 50 04             	call   *0x4(%eax)
  105251:	89 c3                	mov    %eax,%ebx
  105253:	c7 04 24 10 00 00 00 	movl   $0x10,(%esp)
  10525a:	a1 90 80 10 00       	mov    0x108090,%eax
  10525f:	ff 50 04             	call   *0x4(%eax)
  105262:	c7 00 48 6e 10 00    	movl   $0x106e48,(%eax)
  105268:	c7 40 04 01 00 00 00 	movl   $0x1,0x4(%eax)
  10526f:	89 58 08             	mov    %ebx,0x8(%eax)
  105272:	c7 40 0c ec 82 10 00 	movl   $0x1082ec,0xc(%eax)
  105279:	a3 e0 a5 13 00       	mov    %eax,0x13a5e0
  10527e:	c7 04 24 08 00 00 00 	movl   $0x8,(%esp)
  105285:	a1 90 80 10 00       	mov    0x108090,%eax
  10528a:	ff 50 04             	call   *0x4(%eax)
  10528d:	89 c3                	mov    %eax,%ebx
  10528f:	c7 04 24 10 00 00 00 	movl   $0x10,(%esp)
  105296:	a1 90 80 10 00       	mov    0x108090,%eax
  10529b:	ff 50 04             	call   *0x4(%eax)
  10529e:	c7 00 51 6e 10 00    	movl   $0x106e51,(%eax)
  1052a4:	c7 40 04 02 00 00 00 	movl   $0x2,0x4(%eax)
  1052ab:	89 58 08             	mov    %ebx,0x8(%eax)
  1052ae:	c7 40 0c ec 82 10 00 	movl   $0x1082ec,0xc(%eax)
  1052b5:	a3 e4 a5 13 00       	mov    %eax,0x13a5e4
  1052ba:	c7 04 24 a0 00 00 00 	movl   $0xa0,(%esp)
  1052c1:	a1 90 80 10 00       	mov    0x108090,%eax
  1052c6:	ff 50 04             	call   *0x4(%eax)
  1052c9:	89 c3                	mov    %eax,%ebx
  1052cb:	c7 04 24 10 00 00 00 	movl   $0x10,(%esp)
  1052d2:	a1 90 80 10 00       	mov    0x108090,%eax
  1052d7:	ff 50 04             	call   *0x4(%eax)
  1052da:	c7 00 93 6c 10 00    	movl   $0x106c93,(%eax)
  1052e0:	c7 40 04 01 00 00 00 	movl   $0x1,0x4(%eax)
  1052e7:	89 58 08             	mov    %ebx,0x8(%eax)
  1052ea:	c7 40 0c e0 82 10 00 	movl   $0x1082e0,0xc(%eax)
  1052f1:	a3 e8 a5 13 00       	mov    %eax,0x13a5e8
  1052f6:	c7 04 24 0c 00 00 00 	movl   $0xc,(%esp)
  1052fd:	a1 90 80 10 00       	mov    0x108090,%eax
  105302:	ff 50 04             	call   *0x4(%eax)
  105305:	89 c3                	mov    %eax,%ebx
  105307:	c7 04 24 10 00 00 00 	movl   $0x10,(%esp)
  10530e:	a1 90 80 10 00       	mov    0x108090,%eax
  105313:	ff 50 04             	call   *0x4(%eax)
  105316:	c7 00 a8 6d 10 00    	movl   $0x106da8,(%eax)
  10531c:	c7 40 04 01 00 00 00 	movl   $0x1,0x4(%eax)
  105323:	89 58 08             	mov    %ebx,0x8(%eax)
  105326:	c7 40 0c a8 1e 11 00 	movl   $0x111ea8,0xc(%eax)
  10532d:	a3 ec a5 13 00       	mov    %eax,0x13a5ec
  105332:	c7 04 24 d4 00 00 00 	movl   $0xd4,(%esp)
  105339:	a1 90 80 10 00       	mov    0x108090,%eax
  10533e:	ff 50 04             	call   *0x4(%eax)
  105341:	89 c3                	mov    %eax,%ebx
  105343:	c7 04 24 10 00 00 00 	movl   $0x10,(%esp)
  10534a:	a1 90 80 10 00       	mov    0x108090,%eax
  10534f:	ff 50 04             	call   *0x4(%eax)
  105352:	c7 00 d4 6d 10 00    	movl   $0x106dd4,(%eax)
  105358:	c7 40 04 01 00 00 00 	movl   $0x1,0x4(%eax)
  10535f:	89 58 08             	mov    %ebx,0x8(%eax)
  105362:	c7 40 0c c0 4e 11 00 	movl   $0x114ec0,0xc(%eax)
  105369:	a3 f0 a5 13 00       	mov    %eax,0x13a5f0
  10536e:	c7 04 24 d4 00 00 00 	movl   $0xd4,(%esp)
  105375:	a1 90 80 10 00       	mov    0x108090,%eax
  10537a:	ff 50 04             	call   *0x4(%eax)
  10537d:	89 c3                	mov    %eax,%ebx
  10537f:	c7 04 24 10 00 00 00 	movl   $0x10,(%esp)
  105386:	a1 90 80 10 00       	mov    0x108090,%eax
  10538b:	ff 50 04             	call   *0x4(%eax)
  10538e:	c7 00 d9 6d 10 00    	movl   $0x106dd9,(%eax)
  105394:	c7 40 04 02 00 00 00 	movl   $0x2,0x4(%eax)
  10539b:	89 58 08             	mov    %ebx,0x8(%eax)
  10539e:	c7 40 0c c0 4e 11 00 	movl   $0x114ec0,0xc(%eax)
  1053a5:	a3 f4 a5 13 00       	mov    %eax,0x13a5f4
  1053aa:	c7 04 24 d4 00 00 00 	movl   $0xd4,(%esp)
  1053b1:	a1 90 80 10 00       	mov    0x108090,%eax
  1053b6:	ff 50 04             	call   *0x4(%eax)
  1053b9:	89 c3                	mov    %eax,%ebx
  1053bb:	c7 04 24 10 00 00 00 	movl   $0x10,(%esp)
  1053c2:	a1 90 80 10 00       	mov    0x108090,%eax
  1053c7:	ff 50 04             	call   *0x4(%eax)
  1053ca:	c7 00 de 6d 10 00    	movl   $0x106dde,(%eax)
  1053d0:	c7 40 04 03 00 00 00 	movl   $0x3,0x4(%eax)
  1053d7:	89 58 08             	mov    %ebx,0x8(%eax)
  1053da:	c7 40 0c c0 4e 11 00 	movl   $0x114ec0,0xc(%eax)
  1053e1:	a3 f8 a5 13 00       	mov    %eax,0x13a5f8
  1053e6:	c7 04 24 d4 00 00 00 	movl   $0xd4,(%esp)
  1053ed:	a1 90 80 10 00       	mov    0x108090,%eax
  1053f2:	ff 50 04             	call   *0x4(%eax)
  1053f5:	89 c3                	mov    %eax,%ebx
  1053f7:	c7 04 24 10 00 00 00 	movl   $0x10,(%esp)
  1053fe:	a1 90 80 10 00       	mov    0x108090,%eax
  105403:	ff 50 04             	call   *0x4(%eax)
  105406:	c7 00 e3 6d 10 00    	movl   $0x106de3,(%eax)
  10540c:	c7 40 04 04 00 00 00 	movl   $0x4,0x4(%eax)
  105413:	89 58 08             	mov    %ebx,0x8(%eax)
  105416:	c7 40 0c c0 4e 11 00 	movl   $0x114ec0,0xc(%eax)
  10541d:	a3 fc a5 13 00       	mov    %eax,0x13a5fc
  105422:	a1 e0 a5 13 00       	mov    0x13a5e0,%eax
  105427:	8b 50 0c             	mov    0xc(%eax),%edx
  10542a:	89 04 24             	mov    %eax,(%esp)
  10542d:	ff 12                	call   *(%edx)
  10542f:	a1 e4 a5 13 00       	mov    0x13a5e4,%eax
  105434:	8b 50 0c             	mov    0xc(%eax),%edx
  105437:	89 04 24             	mov    %eax,(%esp)
  10543a:	ff 12                	call   *(%edx)
  10543c:	a1 e8 a5 13 00       	mov    0x13a5e8,%eax
  105441:	8b 50 0c             	mov    0xc(%eax),%edx
  105444:	89 04 24             	mov    %eax,(%esp)
  105447:	ff 12                	call   *(%edx)
  105449:	a1 ec a5 13 00       	mov    0x13a5ec,%eax
  10544e:	8b 50 0c             	mov    0xc(%eax),%edx
  105451:	89 04 24             	mov    %eax,(%esp)
  105454:	ff 12                	call   *(%edx)
  105456:	a1 f0 a5 13 00       	mov    0x13a5f0,%eax
  10545b:	8b 50 0c             	mov    0xc(%eax),%edx
  10545e:	89 04 24             	mov    %eax,(%esp)
  105461:	ff 12                	call   *(%edx)
  105463:	a1 f4 a5 13 00       	mov    0x13a5f4,%eax
  105468:	8b 50 0c             	mov    0xc(%eax),%edx
  10546b:	89 04 24             	mov    %eax,(%esp)
  10546e:	ff 12                	call   *(%edx)
  105470:	a1 f8 a5 13 00       	mov    0x13a5f8,%eax
  105475:	8b 50 0c             	mov    0xc(%eax),%edx
  105478:	89 04 24             	mov    %eax,(%esp)
  10547b:	ff 12                	call   *(%edx)
  10547d:	a1 fc a5 13 00       	mov    0x13a5fc,%eax
  105482:	8b 50 0c             	mov    0xc(%eax),%edx
  105485:	89 04 24             	mov    %eax,(%esp)
  105488:	ff 12                	call   *(%edx)
  10548a:	a1 c4 80 10 00       	mov    0x1080c4,%eax
  10548f:	8b 58 04             	mov    0x4(%eax),%ebx
  105492:	c7 04 24 80 00 00 00 	movl   $0x80,(%esp)
  105499:	a1 90 80 10 00       	mov    0x108090,%eax
  10549e:	ff 50 04             	call   *0x4(%eax)
  1054a1:	6a 00                	push   $0x0
  1054a3:	68 a4 44 10 00       	push   $0x1044a4
  1054a8:	68 5a 6e 10 00       	push   $0x106e5a
  1054ad:	50                   	push   %eax
  1054ae:	ff d3                	call   *%ebx
  1054b0:	a1 c4 80 10 00       	mov    0x1080c4,%eax
  1054b5:	8b 58 04             	mov    0x4(%eax),%ebx
  1054b8:	83 c4 14             	add    $0x14,%esp
  1054bb:	68 80 00 00 00       	push   $0x80
  1054c0:	a1 90 80 10 00       	mov    0x108090,%eax
  1054c5:	ff 50 04             	call   *0x4(%eax)
  1054c8:	6a 00                	push   $0x0
  1054ca:	68 e8 4e 10 00       	push   $0x104ee8
  1054cf:	68 65 6e 10 00       	push   $0x106e65
  1054d4:	50                   	push   %eax
  1054d5:	ff d3                	call   *%ebx
  1054d7:	83 c4 20             	add    $0x20,%esp
  1054da:	8b 5d fc             	mov    -0x4(%ebp),%ebx
  1054dd:	c9                   	leave  
  1054de:	c3                   	ret    
  1054df:	90                   	nop

001054e0 <dev_lookup>:
  1054e0:	55                   	push   %ebp
  1054e1:	89 e5                	mov    %esp,%ebp
  1054e3:	56                   	push   %esi
  1054e4:	53                   	push   %ebx
  1054e5:	8b 75 08             	mov    0x8(%ebp),%esi
  1054e8:	31 db                	xor    %ebx,%ebx
  1054ea:	66 90                	xchg   %ax,%ax
  1054ec:	83 ec 08             	sub    $0x8,%esp
  1054ef:	56                   	push   %esi
  1054f0:	8b 04 9d e0 a5 13 00 	mov    0x13a5e0(,%ebx,4),%eax
  1054f7:	ff 30                	pushl  (%eax)
  1054f9:	e8 1e 06 00 00       	call   105b1c <strcmp>
  1054fe:	83 c4 10             	add    $0x10,%esp
  105501:	85 c0                	test   %eax,%eax
  105503:	74 73                	je     105578 <dev_lookup+0x98>
  105505:	43                   	inc    %ebx
  105506:	83 fb 08             	cmp    $0x8,%ebx
  105509:	75 e1                	jne    1054ec <dev_lookup+0xc>
  10550b:	bb ad 64 10 00       	mov    $0x1064ad,%ebx
  105510:	b8 41 00 00 00       	mov    $0x41,%eax
  105515:	8d 76 00             	lea    0x0(%esi),%esi
  105518:	83 ec 0c             	sub    $0xc,%esp
  10551b:	50                   	push   %eax
  10551c:	e8 df aa ff ff       	call   100000 <_putc>
  105521:	43                   	inc    %ebx
  105522:	0f be 03             	movsbl (%ebx),%eax
  105525:	83 c4 10             	add    $0x10,%esp
  105528:	84 c0                	test   %al,%al
  10552a:	75 ec                	jne    105518 <dev_lookup+0x38>
  10552c:	bb 6e 6e 10 00       	mov    $0x106e6e,%ebx
  105531:	b8 6c 00 00 00       	mov    $0x6c,%eax
  105536:	66 90                	xchg   %ax,%ax
  105538:	83 ec 0c             	sub    $0xc,%esp
  10553b:	50                   	push   %eax
  10553c:	e8 bf aa ff ff       	call   100000 <_putc>
  105541:	43                   	inc    %ebx
  105542:	0f be 03             	movsbl (%ebx),%eax
  105545:	83 c4 10             	add    $0x10,%esp
  105548:	84 c0                	test   %al,%al
  10554a:	75 ec                	jne    105538 <dev_lookup+0x58>
  10554c:	bb 84 6e 10 00       	mov    $0x106e84,%ebx
  105551:	b8 20 00 00 00       	mov    $0x20,%eax
  105556:	66 90                	xchg   %ax,%ax
  105558:	83 ec 0c             	sub    $0xc,%esp
  10555b:	50                   	push   %eax
  10555c:	e8 9f aa ff ff       	call   100000 <_putc>
  105561:	43                   	inc    %ebx
  105562:	0f be 03             	movsbl (%ebx),%eax
  105565:	83 c4 10             	add    $0x10,%esp
  105568:	84 c0                	test   %al,%al
  10556a:	75 ec                	jne    105558 <dev_lookup+0x78>
  10556c:	83 ec 0c             	sub    $0xc,%esp
  10556f:	6a 01                	push   $0x1
  105571:	e8 9a aa ff ff       	call   100010 <_halt>
  105576:	66 90                	xchg   %ax,%ax
  105578:	8b 04 9d e0 a5 13 00 	mov    0x13a5e0(,%ebx,4),%eax
  10557f:	8d 65 f8             	lea    -0x8(%ebp),%esp
  105582:	5b                   	pop    %ebx
  105583:	5e                   	pop    %esi
  105584:	5d                   	pop    %ebp
  105585:	c3                   	ret    
  105586:	66 90                	xchg   %ax,%ax

00105588 <os_trap>:
  105588:	55                   	push   %ebp
  105589:	89 e5                	mov    %esp,%ebp
  10558b:	57                   	push   %edi
  10558c:	56                   	push   %esi
  10558d:	53                   	push   %ebx
  10558e:	83 ec 28             	sub    $0x28,%esp
  105591:	68 00 a5 13 00       	push   $0x13a500
  105596:	a1 c4 80 10 00       	mov    0x1080c4,%eax
  10559b:	ff 50 10             	call   *0x10(%eax)
  10559e:	83 c4 10             	add    $0x10,%esp
  1055a1:	a1 00 a6 13 00       	mov    0x13a600,%eax
  1055a6:	85 c0                	test   %eax,%eax
  1055a8:	7e 72                	jle    10561c <os_trap+0x94>
  1055aa:	bb 08 a6 13 00       	mov    $0x13a608,%ebx
  1055af:	31 ff                	xor    %edi,%edi
  1055b1:	31 f6                	xor    %esi,%esi
  1055b3:	89 f2                	mov    %esi,%edx
  1055b5:	8b 75 18             	mov    0x18(%ebp),%esi
  1055b8:	8b 03                	mov    (%ebx),%eax
  1055ba:	85 c0                	test   %eax,%eax
  1055bc:	75 56                	jne    105614 <os_trap+0x8c>
  1055be:	83 ec 0c             	sub    $0xc,%esp
  1055c1:	56                   	push   %esi
  1055c2:	83 ec 10             	sub    $0x10,%esp
  1055c5:	89 e1                	mov    %esp,%ecx
  1055c7:	31 c0                	xor    %eax,%eax
  1055c9:	89 55 e4             	mov    %edx,-0x1c(%ebp)
  1055cc:	8b 54 05 08          	mov    0x8(%ebp,%eax,1),%edx
  1055d0:	89 14 01             	mov    %edx,(%ecx,%eax,1)
  1055d3:	83 c0 04             	add    $0x4,%eax
  1055d6:	83 f8 10             	cmp    $0x10,%eax
  1055d9:	72 f1                	jb     1055cc <os_trap+0x44>
  1055db:	ff 53 04             	call   *0x4(%ebx)
  1055de:	83 c4 20             	add    $0x20,%esp
  1055e1:	85 c0                	test   %eax,%eax
  1055e3:	8b 55 e4             	mov    -0x1c(%ebp),%edx
  1055e6:	74 02                	je     1055ea <os_trap+0x62>
  1055e8:	89 c2                	mov    %eax,%edx
  1055ea:	47                   	inc    %edi
  1055eb:	83 c3 0c             	add    $0xc,%ebx
  1055ee:	39 3d 00 a6 13 00    	cmp    %edi,0x13a600
  1055f4:	7f c2                	jg     1055b8 <os_trap+0x30>
  1055f6:	89 d6                	mov    %edx,%esi
  1055f8:	83 ec 0c             	sub    $0xc,%esp
  1055fb:	68 00 a5 13 00       	push   $0x13a500
  105600:	a1 c4 80 10 00       	mov    0x1080c4,%eax
  105605:	ff 50 14             	call   *0x14(%eax)
  105608:	89 f0                	mov    %esi,%eax
  10560a:	8d 65 f4             	lea    -0xc(%ebp),%esp
  10560d:	5b                   	pop    %ebx
  10560e:	5e                   	pop    %esi
  10560f:	5f                   	pop    %edi
  105610:	5d                   	pop    %ebp
  105611:	c3                   	ret    
  105612:	66 90                	xchg   %ax,%ax
  105614:	3b 45 08             	cmp    0x8(%ebp),%eax
  105617:	75 d1                	jne    1055ea <os_trap+0x62>
  105619:	eb a3                	jmp    1055be <os_trap+0x36>
  10561b:	90                   	nop
  10561c:	31 f6                	xor    %esi,%esi
  10561e:	eb d8                	jmp    1055f8 <os_trap+0x70>

00105620 <os_on_irq>:
  105620:	55                   	push   %ebp
  105621:	89 e5                	mov    %esp,%ebp
  105623:	56                   	push   %esi
  105624:	53                   	push   %ebx
  105625:	a1 00 a6 13 00       	mov    0x13a600,%eax
  10562a:	8d 34 00             	lea    (%eax,%eax,1),%esi
  10562d:	01 c6                	add    %eax,%esi
  10562f:	c1 e6 02             	shl    $0x2,%esi
  105632:	8b 4d 08             	mov    0x8(%ebp),%ecx
  105635:	89 8e 04 a6 13 00    	mov    %ecx,0x13a604(%esi)
  10563b:	8b 4d 0c             	mov    0xc(%ebp),%ecx
  10563e:	89 8e 08 a6 13 00    	mov    %ecx,0x13a608(%esi)
  105644:	8b 4d 10             	mov    0x10(%ebp),%ecx
  105647:	89 8e 0c a6 13 00    	mov    %ecx,0x13a60c(%esi)
  10564d:	40                   	inc    %eax
  10564e:	a3 00 a6 13 00       	mov    %eax,0x13a600
  105653:	85 c0                	test   %eax,%eax
  105655:	7e 45                	jle    10569c <os_on_irq+0x7c>
  105657:	ba 10 a6 13 00       	mov    $0x13a610,%edx
  10565c:	01 d6                	add    %edx,%esi
  10565e:	39 f2                	cmp    %esi,%edx
  105660:	74 3a                	je     10569c <os_on_irq+0x7c>
  105662:	66 90                	xchg   %ax,%ax
  105664:	89 d0                	mov    %edx,%eax
  105666:	66 90                	xchg   %ax,%ax
  105668:	8b 4a f4             	mov    -0xc(%edx),%ecx
  10566b:	8b 18                	mov    (%eax),%ebx
  10566d:	39 d9                	cmp    %ebx,%ecx
  10566f:	7e 1d                	jle    10568e <os_on_irq+0x6e>
  105671:	89 5a f4             	mov    %ebx,-0xc(%edx)
  105674:	89 08                	mov    %ecx,(%eax)
  105676:	8b 4a f8             	mov    -0x8(%edx),%ecx
  105679:	8b 58 04             	mov    0x4(%eax),%ebx
  10567c:	89 5a f8             	mov    %ebx,-0x8(%edx)
  10567f:	89 48 04             	mov    %ecx,0x4(%eax)
  105682:	8b 4a fc             	mov    -0x4(%edx),%ecx
  105685:	8b 58 08             	mov    0x8(%eax),%ebx
  105688:	89 5a fc             	mov    %ebx,-0x4(%edx)
  10568b:	89 48 08             	mov    %ecx,0x8(%eax)
  10568e:	83 c0 0c             	add    $0xc,%eax
  105691:	39 f0                	cmp    %esi,%eax
  105693:	75 d3                	jne    105668 <os_on_irq+0x48>
  105695:	83 c2 0c             	add    $0xc,%edx
  105698:	39 f2                	cmp    %esi,%edx
  10569a:	75 c8                	jne    105664 <os_on_irq+0x44>
  10569c:	5b                   	pop    %ebx
  10569d:	5e                   	pop    %esi
  10569e:	5d                   	pop    %ebp
  10569f:	c3                   	ret    

001056a0 <os_run>:
  1056a0:	55                   	push   %ebp
  1056a1:	89 e5                	mov    %esp,%ebp
  1056a3:	53                   	push   %ebx
  1056a4:	50                   	push   %eax
  1056a5:	bb 9f 6e 10 00       	mov    $0x106e9f,%ebx
  1056aa:	b8 48 00 00 00       	mov    $0x48,%eax
  1056af:	83 ec 0c             	sub    $0xc,%esp
  1056b2:	50                   	push   %eax
  1056b3:	e8 48 a9 ff ff       	call   100000 <_putc>
  1056b8:	43                   	inc    %ebx
  1056b9:	0f be 03             	movsbl (%ebx),%eax
  1056bc:	83 c4 10             	add    $0x10,%esp
  1056bf:	84 c0                	test   %al,%al
  1056c1:	75 ec                	jne    1056af <os_run+0xf>
  1056c3:	e8 58 b0 ff ff       	call   100720 <_cpu>
  1056c8:	83 ec 0c             	sub    $0xc,%esp
  1056cb:	0f be 80 b0 6e 10 00 	movsbl 0x106eb0(%eax),%eax
  1056d2:	50                   	push   %eax
  1056d3:	e8 28 a9 ff ff       	call   100000 <_putc>
  1056d8:	c7 04 24 0a 00 00 00 	movl   $0xa,(%esp)
  1056df:	e8 1c a9 ff ff       	call   100000 <_putc>
  1056e4:	c7 04 24 01 00 00 00 	movl   $0x1,(%esp)
  1056eb:	e8 64 c9 ff ff       	call   102054 <_intr_write>
  1056f0:	83 c4 10             	add    $0x10,%esp
  1056f3:	90                   	nop
  1056f4:	e8 43 c6 ff ff       	call   101d3c <_yield>
  1056f9:	eb f9                	jmp    1056f4 <os_run+0x54>
  1056fb:	90                   	nop

001056fc <os_init>:
  1056fc:	55                   	push   %ebp
  1056fd:	89 e5                	mov    %esp,%ebp
  1056ff:	83 ec 08             	sub    $0x8,%esp
  105702:	a1 90 80 10 00       	mov    0x108090,%eax
  105707:	ff 10                	call   *(%eax)
  105709:	a1 c4 80 10 00       	mov    0x1080c4,%eax
  10570e:	ff 10                	call   *(%eax)
  105710:	a1 90 80 10 00       	mov    0x108090,%eax
  105715:	83 ec 08             	sub    $0x8,%esp
  105718:	ff 70 08             	pushl  0x8(%eax)
  10571b:	ff 70 04             	pushl  0x4(%eax)
  10571e:	e8 81 cc ff ff       	call   1023a4 <_vme_init>
  105723:	83 c4 10             	add    $0x10,%esp
  105726:	a1 d0 4e 11 00       	mov    0x114ed0,%eax
  10572b:	8b 00                	mov    (%eax),%eax
  10572d:	c9                   	leave  
  10572e:	ff e0                	jmp    *%eax

00105730 <printf>:
  105730:	55                   	push   %ebp
  105731:	89 e5                	mov    %esp,%ebp
  105733:	56                   	push   %esi
  105734:	53                   	push   %ebx
  105735:	8d 45 0c             	lea    0xc(%ebp),%eax
  105738:	52                   	push   %edx
  105739:	50                   	push   %eax
  10573a:	ff 75 08             	pushl  0x8(%ebp)
  10573d:	68 60 5c 11 00       	push   $0x115c60
  105742:	e8 75 01 00 00       	call   1058bc <vsprintf>
  105747:	83 c4 10             	add    $0x10,%esp
  10574a:	3d ff 01 00 00       	cmp    $0x1ff,%eax
  10574f:	7f 30                	jg     105781 <printf+0x51>
  105751:	89 c3                	mov    %eax,%ebx
  105753:	31 f6                	xor    %esi,%esi
  105755:	eb 16                	jmp    10576d <printf+0x3d>
  105757:	90                   	nop
  105758:	83 ec 0c             	sub    $0xc,%esp
  10575b:	50                   	push   %eax
  10575c:	e8 9f a8 ff ff       	call   100000 <_putc>
  105761:	46                   	inc    %esi
  105762:	83 c4 10             	add    $0x10,%esp
  105765:	81 fe 00 02 00 00    	cmp    $0x200,%esi
  10576b:	74 0b                	je     105778 <printf+0x48>
  10576d:	0f be 86 60 5c 11 00 	movsbl 0x115c60(%esi),%eax
  105774:	84 c0                	test   %al,%al
  105776:	75 e0                	jne    105758 <printf+0x28>
  105778:	89 d8                	mov    %ebx,%eax
  10577a:	8d 65 f8             	lea    -0x8(%ebp),%esp
  10577d:	5b                   	pop    %ebx
  10577e:	5e                   	pop    %esi
  10577f:	5d                   	pop    %ebp
  105780:	c3                   	ret    
  105781:	50                   	push   %eax
  105782:	68 a8 00 00 00       	push   $0xa8
  105787:	68 b9 6e 10 00       	push   $0x106eb9
  10578c:	68 7c 69 10 00       	push   $0x10697c
  105791:	e8 9a ff ff ff       	call   105730 <printf>
  105796:	c7 04 24 01 00 00 00 	movl   $0x1,(%esp)
  10579d:	e8 6e a8 ff ff       	call   100010 <_halt>
  1057a2:	66 90                	xchg   %ax,%ax

001057a4 <number>:
  1057a4:	55                   	push   %ebp
  1057a5:	89 e5                	mov    %esp,%ebp
  1057a7:	57                   	push   %edi
  1057a8:	56                   	push   %esi
  1057a9:	53                   	push   %ebx
  1057aa:	83 ec 1c             	sub    $0x1c,%esp
  1057ad:	8b 4d 08             	mov    0x8(%ebp),%ecx
  1057b0:	8b 45 0c             	mov    0xc(%ebp),%eax
  1057b3:	8b 5d 18             	mov    0x18(%ebp),%ebx
  1057b6:	83 7d 10 0a          	cmpl   $0xa,0x10(%ebp)
  1057ba:	74 0a                	je     1057c6 <number+0x22>
  1057bc:	83 7d 10 10          	cmpl   $0x10,0x10(%ebp)
  1057c0:	0f 85 d5 00 00 00    	jne    10589b <number+0xf7>
  1057c6:	f6 45 14 02          	testb  $0x2,0x14(%ebp)
  1057ca:	0f 85 94 00 00 00    	jne    105864 <number+0xc0>
  1057d0:	85 c0                	test   %eax,%eax
  1057d2:	0f 84 96 00 00 00    	je     10586e <number+0xca>
  1057d8:	c6 45 e7 00          	movb   $0x0,-0x19(%ebp)
  1057dc:	31 ff                	xor    %edi,%edi
  1057de:	89 4d 08             	mov    %ecx,0x8(%ebp)
  1057e1:	eb 03                	jmp    1057e6 <number+0x42>
  1057e3:	90                   	nop
  1057e4:	89 f7                	mov    %esi,%edi
  1057e6:	31 d2                	xor    %edx,%edx
  1057e8:	f7 75 10             	divl   0x10(%ebp)
  1057eb:	8d 77 01             	lea    0x1(%edi),%esi
  1057ee:	8a 92 e8 4e 11 00    	mov    0x114ee8(%edx),%dl
  1057f4:	88 96 1f ac 13 00    	mov    %dl,0x13ac1f(%esi)
  1057fa:	85 c0                	test   %eax,%eax
  1057fc:	75 e6                	jne    1057e4 <number+0x40>
  1057fe:	89 f2                	mov    %esi,%edx
  105800:	8b 4d 08             	mov    0x8(%ebp),%ecx
  105803:	8a 45 e7             	mov    -0x19(%ebp),%al
  105806:	84 c0                	test   %al,%al
  105808:	74 03                	je     10580d <number+0x69>
  10580a:	88 01                	mov    %al,(%ecx)
  10580c:	41                   	inc    %ecx
  10580d:	39 de                	cmp    %ebx,%esi
  10580f:	7d 22                	jge    105833 <number+0x8f>
  105811:	8b 45 14             	mov    0x14(%ebp),%eax
  105814:	83 e0 01             	and    $0x1,%eax
  105817:	eb 0c                	jmp    105825 <number+0x81>
  105819:	8d 76 00             	lea    0x0(%esi),%esi
  10581c:	c6 41 ff 30          	movb   $0x30,-0x1(%ecx)
  105820:	4b                   	dec    %ebx
  105821:	39 d3                	cmp    %edx,%ebx
  105823:	7e 0e                	jle    105833 <number+0x8f>
  105825:	41                   	inc    %ecx
  105826:	85 c0                	test   %eax,%eax
  105828:	75 f2                	jne    10581c <number+0x78>
  10582a:	c6 41 ff 20          	movb   $0x20,-0x1(%ecx)
  10582e:	4b                   	dec    %ebx
  10582f:	39 d3                	cmp    %edx,%ebx
  105831:	7f f2                	jg     105825 <number+0x81>
  105833:	8d 87 20 ac 13 00    	lea    0x13ac20(%edi),%eax
  105839:	89 ca                	mov    %ecx,%edx
  10583b:	bf 01 00 00 00       	mov    $0x1,%edi
  105840:	81 ef 20 ac 13 00    	sub    $0x13ac20,%edi
  105846:	66 90                	xchg   %ax,%ax
  105848:	42                   	inc    %edx
  105849:	8a 18                	mov    (%eax),%bl
  10584b:	88 5a ff             	mov    %bl,-0x1(%edx)
  10584e:	48                   	dec    %eax
  10584f:	8d 1c 07             	lea    (%edi,%eax,1),%ebx
  105852:	85 db                	test   %ebx,%ebx
  105854:	7f f2                	jg     105848 <number+0xa4>
  105856:	8d 04 31             	lea    (%ecx,%esi,1),%eax
  105859:	8d 65 f4             	lea    -0xc(%ebp),%esp
  10585c:	5b                   	pop    %ebx
  10585d:	5e                   	pop    %esi
  10585e:	5f                   	pop    %edi
  10585f:	5d                   	pop    %ebp
  105860:	c3                   	ret    
  105861:	8d 76 00             	lea    0x0(%esi),%esi
  105864:	85 c0                	test   %eax,%eax
  105866:	78 20                	js     105888 <number+0xe4>
  105868:	0f 85 6a ff ff ff    	jne    1057d8 <number+0x34>
  10586e:	c6 05 20 ac 13 00 30 	movb   $0x30,0x13ac20
  105875:	83 fb 01             	cmp    $0x1,%ebx
  105878:	7e 19                	jle    105893 <number+0xef>
  10587a:	31 ff                	xor    %edi,%edi
  10587c:	ba 01 00 00 00       	mov    $0x1,%edx
  105881:	be 01 00 00 00       	mov    $0x1,%esi
  105886:	eb 89                	jmp    105811 <number+0x6d>
  105888:	f7 d8                	neg    %eax
  10588a:	c6 45 e7 2d          	movb   $0x2d,-0x19(%ebp)
  10588e:	e9 49 ff ff ff       	jmp    1057dc <number+0x38>
  105893:	8d 41 01             	lea    0x1(%ecx),%eax
  105896:	c6 01 30             	movb   $0x30,(%ecx)
  105899:	eb be                	jmp    105859 <number+0xb5>
  10589b:	50                   	push   %eax
  10589c:	6a 15                	push   $0x15
  10589e:	68 b9 6e 10 00       	push   $0x106eb9
  1058a3:	68 7c 69 10 00       	push   $0x10697c
  1058a8:	e8 83 fe ff ff       	call   105730 <printf>
  1058ad:	c7 04 24 01 00 00 00 	movl   $0x1,(%esp)
  1058b4:	e8 57 a7 ff ff       	call   100010 <_halt>
  1058b9:	66 90                	xchg   %ax,%ax
  1058bb:	90                   	nop

001058bc <vsprintf>:
  1058bc:	55                   	push   %ebp
  1058bd:	89 e5                	mov    %esp,%ebp
  1058bf:	57                   	push   %edi
  1058c0:	56                   	push   %esi
  1058c1:	53                   	push   %ebx
  1058c2:	83 ec 1c             	sub    $0x1c,%esp
  1058c5:	8b 45 0c             	mov    0xc(%ebp),%eax
  1058c8:	8a 00                	mov    (%eax),%al
  1058ca:	8b 7d 08             	mov    0x8(%ebp),%edi
  1058cd:	89 7d e0             	mov    %edi,-0x20(%ebp)
  1058d0:	84 c0                	test   %al,%al
  1058d2:	75 26                	jne    1058fa <vsprintf+0x3e>
  1058d4:	e9 43 01 00 00       	jmp    105a1c <vsprintf+0x160>
  1058d9:	8d 76 00             	lea    0x0(%esi),%esi
  1058dc:	8b 7d 08             	mov    0x8(%ebp),%edi
  1058df:	88 07                	mov    %al,(%edi)
  1058e1:	89 f8                	mov    %edi,%eax
  1058e3:	40                   	inc    %eax
  1058e4:	89 45 08             	mov    %eax,0x8(%ebp)
  1058e7:	89 d8                	mov    %ebx,%eax
  1058e9:	8b 5d 0c             	mov    0xc(%ebp),%ebx
  1058ec:	89 45 0c             	mov    %eax,0xc(%ebp)
  1058ef:	8a 43 01             	mov    0x1(%ebx),%al
  1058f2:	84 c0                	test   %al,%al
  1058f4:	0f 84 95 00 00 00    	je     10598f <vsprintf+0xd3>
  1058fa:	8b 7d 0c             	mov    0xc(%ebp),%edi
  1058fd:	8d 5f 01             	lea    0x1(%edi),%ebx
  105900:	3c 25                	cmp    $0x25,%al
  105902:	75 d8                	jne    1058dc <vsprintf+0x20>
  105904:	31 c9                	xor    %ecx,%ecx
  105906:	eb 07                	jmp    10590f <vsprintf+0x53>
  105908:	b9 01 00 00 00       	mov    $0x1,%ecx
  10590d:	89 c3                	mov    %eax,%ebx
  10590f:	8a 13                	mov    (%ebx),%dl
  105911:	8d 43 01             	lea    0x1(%ebx),%eax
  105914:	80 fa 30             	cmp    $0x30,%dl
  105917:	74 ef                	je     105908 <vsprintf+0x4c>
  105919:	89 4d e4             	mov    %ecx,-0x1c(%ebp)
  10591c:	31 f6                	xor    %esi,%esi
  10591e:	89 df                	mov    %ebx,%edi
  105920:	eb 10                	jmp    105932 <vsprintf+0x76>
  105922:	66 90                	xchg   %ax,%ax
  105924:	8d 14 b6             	lea    (%esi,%esi,4),%edx
  105927:	01 d2                	add    %edx,%edx
  105929:	8d 74 13 d0          	lea    -0x30(%ebx,%edx,1),%esi
  10592d:	8a 10                	mov    (%eax),%dl
  10592f:	89 c7                	mov    %eax,%edi
  105931:	40                   	inc    %eax
  105932:	0f be da             	movsbl %dl,%ebx
  105935:	89 45 0c             	mov    %eax,0xc(%ebp)
  105938:	8d 4a d0             	lea    -0x30(%edx),%ecx
  10593b:	80 f9 09             	cmp    $0x9,%cl
  10593e:	76 e4                	jbe    105924 <vsprintf+0x68>
  105940:	89 fb                	mov    %edi,%ebx
  105942:	8b 45 10             	mov    0x10(%ebp),%eax
  105945:	8b 38                	mov    (%eax),%edi
  105947:	83 45 10 04          	addl   $0x4,0x10(%ebp)
  10594b:	80 fa 64             	cmp    $0x64,%dl
  10594e:	74 14                	je     105964 <vsprintf+0xa8>
  105950:	7e 52                	jle    1059a4 <vsprintf+0xe8>
  105952:	80 fa 73             	cmp    $0x73,%dl
  105955:	74 65                	je     1059bc <vsprintf+0x100>
  105957:	80 fa 78             	cmp    $0x78,%dl
  10595a:	75 0c                	jne    105968 <vsprintf+0xac>
  10595c:	b8 10 00 00 00       	mov    $0x10,%eax
  105961:	eb 0a                	jmp    10596d <vsprintf+0xb1>
  105963:	90                   	nop
  105964:	83 4d e4 02          	orl    $0x2,-0x1c(%ebp)
  105968:	b8 0a 00 00 00       	mov    $0xa,%eax
  10596d:	83 ec 0c             	sub    $0xc,%esp
  105970:	56                   	push   %esi
  105971:	ff 75 e4             	pushl  -0x1c(%ebp)
  105974:	50                   	push   %eax
  105975:	57                   	push   %edi
  105976:	ff 75 08             	pushl  0x8(%ebp)
  105979:	e8 26 fe ff ff       	call   1057a4 <number>
  10597e:	89 45 08             	mov    %eax,0x8(%ebp)
  105981:	83 c4 20             	add    $0x20,%esp
  105984:	8a 43 01             	mov    0x1(%ebx),%al
  105987:	84 c0                	test   %al,%al
  105989:	0f 85 6b ff ff ff    	jne    1058fa <vsprintf+0x3e>
  10598f:	8b 45 08             	mov    0x8(%ebp),%eax
  105992:	2b 45 e0             	sub    -0x20(%ebp),%eax
  105995:	8b 75 08             	mov    0x8(%ebp),%esi
  105998:	c6 06 00             	movb   $0x0,(%esi)
  10599b:	8d 65 f4             	lea    -0xc(%ebp),%esp
  10599e:	5b                   	pop    %ebx
  10599f:	5e                   	pop    %esi
  1059a0:	5f                   	pop    %edi
  1059a1:	5d                   	pop    %ebp
  1059a2:	c3                   	ret    
  1059a3:	90                   	nop
  1059a4:	80 fa 63             	cmp    $0x63,%dl
  1059a7:	75 bf                	jne    105968 <vsprintf+0xac>
  1059a9:	8b 75 08             	mov    0x8(%ebp),%esi
  1059ac:	89 f8                	mov    %edi,%eax
  1059ae:	88 06                	mov    %al,(%esi)
  1059b0:	89 f0                	mov    %esi,%eax
  1059b2:	40                   	inc    %eax
  1059b3:	89 45 08             	mov    %eax,0x8(%ebp)
  1059b6:	e9 34 ff ff ff       	jmp    1058ef <vsprintf+0x33>
  1059bb:	90                   	nop
  1059bc:	83 ec 0c             	sub    $0xc,%esp
  1059bf:	57                   	push   %edi
  1059c0:	e8 a7 00 00 00       	call   105a6c <strlen>
  1059c5:	89 c2                	mov    %eax,%edx
  1059c7:	83 c4 10             	add    $0x10,%esp
  1059ca:	39 c6                	cmp    %eax,%esi
  1059cc:	7c 4a                	jl     105a18 <vsprintf+0x15c>
  1059ce:	85 d2                	test   %edx,%edx
  1059d0:	7e 1b                	jle    1059ed <vsprintf+0x131>
  1059d2:	31 c0                	xor    %eax,%eax
  1059d4:	89 5d dc             	mov    %ebx,-0x24(%ebp)
  1059d7:	8b 4d 08             	mov    0x8(%ebp),%ecx
  1059da:	66 90                	xchg   %ax,%ax
  1059dc:	8a 1c 07             	mov    (%edi,%eax,1),%bl
  1059df:	88 1c 01             	mov    %bl,(%ecx,%eax,1)
  1059e2:	40                   	inc    %eax
  1059e3:	39 c2                	cmp    %eax,%edx
  1059e5:	75 f5                	jne    1059dc <vsprintf+0x120>
  1059e7:	8b 5d dc             	mov    -0x24(%ebp),%ebx
  1059ea:	01 55 08             	add    %edx,0x8(%ebp)
  1059ed:	39 f2                	cmp    %esi,%edx
  1059ef:	0f 8d fa fe ff ff    	jge    1058ef <vsprintf+0x33>
  1059f5:	29 d6                	sub    %edx,%esi
  1059f7:	03 75 08             	add    0x8(%ebp),%esi
  1059fa:	8b 55 e4             	mov    -0x1c(%ebp),%edx
  1059fd:	8b 45 08             	mov    0x8(%ebp),%eax
  105a00:	eb 0a                	jmp    105a0c <vsprintf+0x150>
  105a02:	66 90                	xchg   %ax,%ax
  105a04:	c6 40 ff 30          	movb   $0x30,-0x1(%eax)
  105a08:	39 f0                	cmp    %esi,%eax
  105a0a:	74 a7                	je     1059b3 <vsprintf+0xf7>
  105a0c:	40                   	inc    %eax
  105a0d:	85 d2                	test   %edx,%edx
  105a0f:	75 f3                	jne    105a04 <vsprintf+0x148>
  105a11:	c6 40 ff 20          	movb   $0x20,-0x1(%eax)
  105a15:	eb f1                	jmp    105a08 <vsprintf+0x14c>
  105a17:	90                   	nop
  105a18:	89 c6                	mov    %eax,%esi
  105a1a:	eb b2                	jmp    1059ce <vsprintf+0x112>
  105a1c:	31 c0                	xor    %eax,%eax
  105a1e:	8b 75 08             	mov    0x8(%ebp),%esi
  105a21:	c6 06 00             	movb   $0x0,(%esi)
  105a24:	8d 65 f4             	lea    -0xc(%ebp),%esp
  105a27:	5b                   	pop    %ebx
  105a28:	5e                   	pop    %esi
  105a29:	5f                   	pop    %edi
  105a2a:	5d                   	pop    %ebp
  105a2b:	c3                   	ret    

00105a2c <sprintf>:
  105a2c:	55                   	push   %ebp
  105a2d:	89 e5                	mov    %esp,%ebp
  105a2f:	83 ec 0c             	sub    $0xc,%esp
  105a32:	8d 45 10             	lea    0x10(%ebp),%eax
  105a35:	50                   	push   %eax
  105a36:	ff 75 0c             	pushl  0xc(%ebp)
  105a39:	ff 75 08             	pushl  0x8(%ebp)
  105a3c:	e8 7b fe ff ff       	call   1058bc <vsprintf>
  105a41:	c9                   	leave  
  105a42:	c3                   	ret    
  105a43:	90                   	nop

00105a44 <snprintf>:
  105a44:	55                   	push   %ebp
  105a45:	89 e5                	mov    %esp,%ebp
  105a47:	83 ec 0c             	sub    $0xc,%esp
  105a4a:	68 bc 00 00 00       	push   $0xbc
  105a4f:	68 b9 6e 10 00       	push   $0x106eb9
  105a54:	68 7c 69 10 00       	push   $0x10697c
  105a59:	e8 d2 fc ff ff       	call   105730 <printf>
  105a5e:	c7 04 24 01 00 00 00 	movl   $0x1,(%esp)
  105a65:	e8 a6 a5 ff ff       	call   100010 <_halt>
  105a6a:	66 90                	xchg   %ax,%ax

00105a6c <strlen>:
  105a6c:	55                   	push   %ebp
  105a6d:	89 e5                	mov    %esp,%ebp
  105a6f:	8b 55 08             	mov    0x8(%ebp),%edx
  105a72:	31 c0                	xor    %eax,%eax
  105a74:	80 3a 00             	cmpb   $0x0,(%edx)
  105a77:	74 0a                	je     105a83 <strlen+0x17>
  105a79:	8d 76 00             	lea    0x0(%esi),%esi
  105a7c:	40                   	inc    %eax
  105a7d:	80 3c 02 00          	cmpb   $0x0,(%edx,%eax,1)
  105a81:	75 f9                	jne    105a7c <strlen+0x10>
  105a83:	5d                   	pop    %ebp
  105a84:	c3                   	ret    
  105a85:	66 90                	xchg   %ax,%ax
  105a87:	90                   	nop

00105a88 <strcpy>:
  105a88:	55                   	push   %ebp
  105a89:	89 e5                	mov    %esp,%ebp
  105a8b:	53                   	push   %ebx
  105a8c:	8b 45 08             	mov    0x8(%ebp),%eax
  105a8f:	8b 4d 0c             	mov    0xc(%ebp),%ecx
  105a92:	8a 11                	mov    (%ecx),%dl
  105a94:	89 c3                	mov    %eax,%ebx
  105a96:	84 d2                	test   %dl,%dl
  105a98:	74 0c                	je     105aa6 <strcpy+0x1e>
  105a9a:	66 90                	xchg   %ax,%ax
  105a9c:	88 13                	mov    %dl,(%ebx)
  105a9e:	43                   	inc    %ebx
  105a9f:	41                   	inc    %ecx
  105aa0:	8a 11                	mov    (%ecx),%dl
  105aa2:	84 d2                	test   %dl,%dl
  105aa4:	75 f6                	jne    105a9c <strcpy+0x14>
  105aa6:	c6 03 00             	movb   $0x0,(%ebx)
  105aa9:	5b                   	pop    %ebx
  105aaa:	5d                   	pop    %ebp
  105aab:	c3                   	ret    

00105aac <strncpy>:
  105aac:	55                   	push   %ebp
  105aad:	89 e5                	mov    %esp,%ebp
  105aaf:	56                   	push   %esi
  105ab0:	53                   	push   %ebx
  105ab1:	8b 45 08             	mov    0x8(%ebp),%eax
  105ab4:	8b 4d 0c             	mov    0xc(%ebp),%ecx
  105ab7:	8b 75 10             	mov    0x10(%ebp),%esi
  105aba:	85 f6                	test   %esi,%esi
  105abc:	74 1c                	je     105ada <strncpy+0x2e>
  105abe:	8a 19                	mov    (%ecx),%bl
  105ac0:	84 db                	test   %bl,%bl
  105ac2:	74 1c                	je     105ae0 <strncpy+0x34>
  105ac4:	01 c6                	add    %eax,%esi
  105ac6:	89 c2                	mov    %eax,%edx
  105ac8:	eb 08                	jmp    105ad2 <strncpy+0x26>
  105aca:	66 90                	xchg   %ax,%ax
  105acc:	8a 19                	mov    (%ecx),%bl
  105ace:	84 db                	test   %bl,%bl
  105ad0:	74 10                	je     105ae2 <strncpy+0x36>
  105ad2:	88 1a                	mov    %bl,(%edx)
  105ad4:	42                   	inc    %edx
  105ad5:	41                   	inc    %ecx
  105ad6:	39 d6                	cmp    %edx,%esi
  105ad8:	75 f2                	jne    105acc <strncpy+0x20>
  105ada:	5b                   	pop    %ebx
  105adb:	5e                   	pop    %esi
  105adc:	5d                   	pop    %ebp
  105add:	c3                   	ret    
  105ade:	66 90                	xchg   %ax,%ax
  105ae0:	89 c2                	mov    %eax,%edx
  105ae2:	c6 02 00             	movb   $0x0,(%edx)
  105ae5:	5b                   	pop    %ebx
  105ae6:	5e                   	pop    %esi
  105ae7:	5d                   	pop    %ebp
  105ae8:	c3                   	ret    
  105ae9:	66 90                	xchg   %ax,%ax
  105aeb:	90                   	nop

00105aec <strcat>:
  105aec:	55                   	push   %ebp
  105aed:	89 e5                	mov    %esp,%ebp
  105aef:	53                   	push   %ebx
  105af0:	8b 45 08             	mov    0x8(%ebp),%eax
  105af3:	8b 5d 0c             	mov    0xc(%ebp),%ebx
  105af6:	89 c2                	mov    %eax,%edx
  105af8:	80 38 00             	cmpb   $0x0,(%eax)
  105afb:	74 13                	je     105b10 <strcat+0x24>
  105afd:	8d 76 00             	lea    0x0(%esi),%esi
  105b00:	42                   	inc    %edx
  105b01:	80 3a 00             	cmpb   $0x0,(%edx)
  105b04:	75 fa                	jne    105b00 <strcat+0x14>
  105b06:	8a 0b                	mov    (%ebx),%cl
  105b08:	84 c9                	test   %cl,%cl
  105b0a:	74 0a                	je     105b16 <strcat+0x2a>
  105b0c:	88 0a                	mov    %cl,(%edx)
  105b0e:	42                   	inc    %edx
  105b0f:	43                   	inc    %ebx
  105b10:	8a 0b                	mov    (%ebx),%cl
  105b12:	84 c9                	test   %cl,%cl
  105b14:	75 f6                	jne    105b0c <strcat+0x20>
  105b16:	c6 02 00             	movb   $0x0,(%edx)
  105b19:	5b                   	pop    %ebx
  105b1a:	5d                   	pop    %ebp
  105b1b:	c3                   	ret    

00105b1c <strcmp>:
  105b1c:	55                   	push   %ebp
  105b1d:	89 e5                	mov    %esp,%ebp
  105b1f:	53                   	push   %ebx
  105b20:	8b 55 08             	mov    0x8(%ebp),%edx
  105b23:	8b 4d 0c             	mov    0xc(%ebp),%ecx
  105b26:	8a 02                	mov    (%edx),%al
  105b28:	8a 19                	mov    (%ecx),%bl
  105b2a:	38 c3                	cmp    %al,%bl
  105b2c:	75 14                	jne    105b42 <strcmp+0x26>
  105b2e:	84 db                	test   %bl,%bl
  105b30:	75 06                	jne    105b38 <strcmp+0x1c>
  105b32:	eb 1c                	jmp    105b50 <strcmp+0x34>
  105b34:	84 c0                	test   %al,%al
  105b36:	74 18                	je     105b50 <strcmp+0x34>
  105b38:	42                   	inc    %edx
  105b39:	41                   	inc    %ecx
  105b3a:	8a 02                	mov    (%edx),%al
  105b3c:	8a 19                	mov    (%ecx),%bl
  105b3e:	38 d8                	cmp    %bl,%al
  105b40:	74 f2                	je     105b34 <strcmp+0x18>
  105b42:	38 d8                	cmp    %bl,%al
  105b44:	7c 0f                	jl     105b55 <strcmp+0x39>
  105b46:	0f 9f c0             	setg   %al
  105b49:	0f b6 c0             	movzbl %al,%eax
  105b4c:	5b                   	pop    %ebx
  105b4d:	5d                   	pop    %ebp
  105b4e:	c3                   	ret    
  105b4f:	90                   	nop
  105b50:	31 c0                	xor    %eax,%eax
  105b52:	5b                   	pop    %ebx
  105b53:	5d                   	pop    %ebp
  105b54:	c3                   	ret    
  105b55:	b8 ff ff ff ff       	mov    $0xffffffff,%eax
  105b5a:	eb f0                	jmp    105b4c <strcmp+0x30>

00105b5c <strncmp>:
  105b5c:	55                   	push   %ebp
  105b5d:	89 e5                	mov    %esp,%ebp
  105b5f:	56                   	push   %esi
  105b60:	53                   	push   %ebx
  105b61:	8b 45 08             	mov    0x8(%ebp),%eax
  105b64:	8b 55 0c             	mov    0xc(%ebp),%edx
  105b67:	8b 75 10             	mov    0x10(%ebp),%esi
  105b6a:	85 f6                	test   %esi,%esi
  105b6c:	74 24                	je     105b92 <strncmp+0x36>
  105b6e:	8a 08                	mov    (%eax),%cl
  105b70:	8a 1a                	mov    (%edx),%bl
  105b72:	38 cb                	cmp    %cl,%bl
  105b74:	75 32                	jne    105ba8 <strncmp+0x4c>
  105b76:	84 db                	test   %bl,%bl
  105b78:	74 1e                	je     105b98 <strncmp+0x3c>
  105b7a:	01 c6                	add    %eax,%esi
  105b7c:	eb 0e                	jmp    105b8c <strncmp+0x30>
  105b7e:	66 90                	xchg   %ax,%ax
  105b80:	8a 08                	mov    (%eax),%cl
  105b82:	8a 1a                	mov    (%edx),%bl
  105b84:	38 d9                	cmp    %bl,%cl
  105b86:	75 20                	jne    105ba8 <strncmp+0x4c>
  105b88:	84 c9                	test   %cl,%cl
  105b8a:	74 10                	je     105b9c <strncmp+0x40>
  105b8c:	40                   	inc    %eax
  105b8d:	42                   	inc    %edx
  105b8e:	39 c6                	cmp    %eax,%esi
  105b90:	75 ee                	jne    105b80 <strncmp+0x24>
  105b92:	31 c0                	xor    %eax,%eax
  105b94:	5b                   	pop    %ebx
  105b95:	5e                   	pop    %esi
  105b96:	5d                   	pop    %ebp
  105b97:	c3                   	ret    
  105b98:	88 d9                	mov    %bl,%cl
  105b9a:	66 90                	xchg   %ax,%ax
  105b9c:	31 c0                	xor    %eax,%eax
  105b9e:	38 d9                	cmp    %bl,%cl
  105ba0:	0f 9f c0             	setg   %al
  105ba3:	5b                   	pop    %ebx
  105ba4:	5e                   	pop    %esi
  105ba5:	5d                   	pop    %ebp
  105ba6:	c3                   	ret    
  105ba7:	90                   	nop
  105ba8:	38 d9                	cmp    %bl,%cl
  105baa:	7d f0                	jge    105b9c <strncmp+0x40>
  105bac:	b8 ff ff ff ff       	mov    $0xffffffff,%eax
  105bb1:	eb f0                	jmp    105ba3 <strncmp+0x47>
  105bb3:	90                   	nop

00105bb4 <memset>:
  105bb4:	55                   	push   %ebp
  105bb5:	89 e5                	mov    %esp,%ebp
  105bb7:	53                   	push   %ebx
  105bb8:	8b 45 08             	mov    0x8(%ebp),%eax
  105bbb:	8b 4d 10             	mov    0x10(%ebp),%ecx
  105bbe:	8a 5d 0c             	mov    0xc(%ebp),%bl
  105bc1:	85 c9                	test   %ecx,%ecx
  105bc3:	74 0e                	je     105bd3 <memset+0x1f>
  105bc5:	01 c1                	add    %eax,%ecx
  105bc7:	89 c2                	mov    %eax,%edx
  105bc9:	8d 76 00             	lea    0x0(%esi),%esi
  105bcc:	88 1a                	mov    %bl,(%edx)
  105bce:	42                   	inc    %edx
  105bcf:	39 ca                	cmp    %ecx,%edx
  105bd1:	75 f9                	jne    105bcc <memset+0x18>
  105bd3:	5b                   	pop    %ebx
  105bd4:	5d                   	pop    %ebp
  105bd5:	c3                   	ret    
  105bd6:	66 90                	xchg   %ax,%ax

00105bd8 <memcpy>:
  105bd8:	55                   	push   %ebp
  105bd9:	89 e5                	mov    %esp,%ebp
  105bdb:	56                   	push   %esi
  105bdc:	53                   	push   %ebx
  105bdd:	8b 75 08             	mov    0x8(%ebp),%esi
  105be0:	8b 4d 0c             	mov    0xc(%ebp),%ecx
  105be3:	8b 5d 10             	mov    0x10(%ebp),%ebx
  105be6:	85 db                	test   %ebx,%ebx
  105be8:	74 10                	je     105bfa <memcpy+0x22>
  105bea:	01 f3                	add    %esi,%ebx
  105bec:	89 f2                	mov    %esi,%edx
  105bee:	66 90                	xchg   %ax,%ax
  105bf0:	8a 01                	mov    (%ecx),%al
  105bf2:	88 02                	mov    %al,(%edx)
  105bf4:	42                   	inc    %edx
  105bf5:	41                   	inc    %ecx
  105bf6:	39 da                	cmp    %ebx,%edx
  105bf8:	75 f6                	jne    105bf0 <memcpy+0x18>
  105bfa:	89 f0                	mov    %esi,%eax
  105bfc:	5b                   	pop    %ebx
  105bfd:	5e                   	pop    %esi
  105bfe:	5d                   	pop    %ebp
  105bff:	c3                   	ret    

00105c00 <memcmp>:
  105c00:	55                   	push   %ebp
  105c01:	89 e5                	mov    %esp,%ebp
  105c03:	56                   	push   %esi
  105c04:	53                   	push   %ebx
  105c05:	8b 45 08             	mov    0x8(%ebp),%eax
  105c08:	8b 55 0c             	mov    0xc(%ebp),%edx
  105c0b:	8b 75 10             	mov    0x10(%ebp),%esi
  105c0e:	85 f6                	test   %esi,%esi
  105c10:	74 1c                	je     105c2e <memcmp+0x2e>
  105c12:	8a 08                	mov    (%eax),%cl
  105c14:	8a 1a                	mov    (%edx),%bl
  105c16:	38 cb                	cmp    %cl,%bl
  105c18:	75 1a                	jne    105c34 <memcmp+0x34>
  105c1a:	01 c6                	add    %eax,%esi
  105c1c:	eb 0a                	jmp    105c28 <memcmp+0x28>
  105c1e:	66 90                	xchg   %ax,%ax
  105c20:	8a 08                	mov    (%eax),%cl
  105c22:	8a 1a                	mov    (%edx),%bl
  105c24:	38 d9                	cmp    %bl,%cl
  105c26:	75 0c                	jne    105c34 <memcmp+0x34>
  105c28:	40                   	inc    %eax
  105c29:	42                   	inc    %edx
  105c2a:	39 f0                	cmp    %esi,%eax
  105c2c:	75 f2                	jne    105c20 <memcmp+0x20>
  105c2e:	31 c0                	xor    %eax,%eax
  105c30:	5b                   	pop    %ebx
  105c31:	5e                   	pop    %esi
  105c32:	5d                   	pop    %ebp
  105c33:	c3                   	ret    
  105c34:	38 cb                	cmp    %cl,%bl
  105c36:	7f 0a                	jg     105c42 <memcmp+0x42>
  105c38:	0f 9c c0             	setl   %al
  105c3b:	0f b6 c0             	movzbl %al,%eax
  105c3e:	5b                   	pop    %ebx
  105c3f:	5e                   	pop    %esi
  105c40:	5d                   	pop    %ebp
  105c41:	c3                   	ret    
  105c42:	b8 ff ff ff ff       	mov    $0xffffffff,%eax
  105c47:	eb e7                	jmp    105c30 <memcmp+0x30>
  105c49:	66 90                	xchg   %ax,%ax
  105c4b:	90                   	nop

00105c4c <memmove>:
  105c4c:	55                   	push   %ebp
  105c4d:	89 e5                	mov    %esp,%ebp
  105c4f:	83 ec 0c             	sub    $0xc,%esp
  105c52:	6a 6e                	push   $0x6e
  105c54:	68 c5 6e 10 00       	push   $0x106ec5
  105c59:	68 7c 69 10 00       	push   $0x10697c
  105c5e:	e8 cd fa ff ff       	call   105730 <printf>
  105c63:	c7 04 24 01 00 00 00 	movl   $0x1,(%esp)
  105c6a:	e8 a1 a3 ff ff       	call   100010 <_halt>
  105c6f:	90                   	nop

00105c70 <uptime>:
  105c70:	55                   	push   %ebp
  105c71:	89 e5                	mov    %esp,%ebp
  105c73:	83 ec 18             	sub    $0x18,%esp
  105c76:	6a 08                	push   $0x8
  105c78:	8d 45 f0             	lea    -0x10(%ebp),%eax
  105c7b:	50                   	push   %eax
  105c7c:	6a 01                	push   $0x1
  105c7e:	68 03 ac 00 00       	push   $0xac03
  105c83:	e8 1c 01 00 00       	call   105da4 <_io_read>
  105c88:	8b 45 f4             	mov    -0xc(%ebp),%eax
  105c8b:	c9                   	leave  
  105c8c:	c3                   	ret    
  105c8d:	66 90                	xchg   %ax,%ax
  105c8f:	90                   	nop

00105c90 <get_timeofday>:
  105c90:	55                   	push   %ebp
  105c91:	89 e5                	mov    %esp,%ebp
  105c93:	83 ec 08             	sub    $0x8,%esp
  105c96:	6a 18                	push   $0x18
  105c98:	ff 75 08             	pushl  0x8(%ebp)
  105c9b:	6a 02                	push   $0x2
  105c9d:	68 03 ac 00 00       	push   $0xac03
  105ca2:	e8 fd 00 00 00       	call   105da4 <_io_read>
  105ca7:	83 c4 10             	add    $0x10,%esp
  105caa:	c9                   	leave  
  105cab:	c3                   	ret    

00105cac <read_key>:
  105cac:	55                   	push   %ebp
  105cad:	89 e5                	mov    %esp,%ebp
  105caf:	83 ec 18             	sub    $0x18,%esp
  105cb2:	6a 08                	push   $0x8
  105cb4:	8d 45 f0             	lea    -0x10(%ebp),%eax
  105cb7:	50                   	push   %eax
  105cb8:	6a 01                	push   $0x1
  105cba:	68 02 ac 00 00       	push   $0xac02
  105cbf:	e8 e0 00 00 00       	call   105da4 <_io_read>
  105cc4:	8b 45 f4             	mov    -0xc(%ebp),%eax
  105cc7:	83 c4 10             	add    $0x10,%esp
  105cca:	8b 55 f0             	mov    -0x10(%ebp),%edx
  105ccd:	85 d2                	test   %edx,%edx
  105ccf:	74 03                	je     105cd4 <read_key+0x28>
  105cd1:	80 cc 80             	or     $0x80,%ah
  105cd4:	c9                   	leave  
  105cd5:	c3                   	ret    
  105cd6:	66 90                	xchg   %ax,%ax

00105cd8 <draw_rect>:
  105cd8:	55                   	push   %ebp
  105cd9:	89 e5                	mov    %esp,%ebp
  105cdb:	83 ec 28             	sub    $0x28,%esp
  105cde:	8b 45 0c             	mov    0xc(%ebp),%eax
  105ce1:	89 45 e0             	mov    %eax,-0x20(%ebp)
  105ce4:	8b 45 10             	mov    0x10(%ebp),%eax
  105ce7:	89 45 e4             	mov    %eax,-0x1c(%ebp)
  105cea:	8b 45 08             	mov    0x8(%ebp),%eax
  105ced:	89 45 e8             	mov    %eax,-0x18(%ebp)
  105cf0:	8b 45 14             	mov    0x14(%ebp),%eax
  105cf3:	89 45 ec             	mov    %eax,-0x14(%ebp)
  105cf6:	8b 45 18             	mov    0x18(%ebp),%eax
  105cf9:	89 45 f0             	mov    %eax,-0x10(%ebp)
  105cfc:	c7 45 f4 00 00 00 00 	movl   $0x0,-0xc(%ebp)
  105d03:	6a 18                	push   $0x18
  105d05:	8d 45 e0             	lea    -0x20(%ebp),%eax
  105d08:	50                   	push   %eax
  105d09:	6a 02                	push   $0x2
  105d0b:	68 04 ac 00 00       	push   $0xac04
  105d10:	e8 07 01 00 00       	call   105e1c <_io_write>
  105d15:	83 c4 10             	add    $0x10,%esp
  105d18:	c9                   	leave  
  105d19:	c3                   	ret    
  105d1a:	66 90                	xchg   %ax,%ax

00105d1c <draw_sync>:
  105d1c:	55                   	push   %ebp
  105d1d:	89 e5                	mov    %esp,%ebp
  105d1f:	83 ec 28             	sub    $0x28,%esp
  105d22:	c7 45 e8 00 00 00 00 	movl   $0x0,-0x18(%ebp)
  105d29:	c7 45 f0 00 00 00 00 	movl   $0x0,-0x10(%ebp)
  105d30:	c7 45 ec 00 00 00 00 	movl   $0x0,-0x14(%ebp)
  105d37:	c7 45 e4 00 00 00 00 	movl   $0x0,-0x1c(%ebp)
  105d3e:	c7 45 e0 00 00 00 00 	movl   $0x0,-0x20(%ebp)
  105d45:	c7 45 f4 01 00 00 00 	movl   $0x1,-0xc(%ebp)
  105d4c:	6a 18                	push   $0x18
  105d4e:	8d 45 e0             	lea    -0x20(%ebp),%eax
  105d51:	50                   	push   %eax
  105d52:	6a 02                	push   $0x2
  105d54:	68 04 ac 00 00       	push   $0xac04
  105d59:	e8 be 00 00 00       	call   105e1c <_io_write>
  105d5e:	83 c4 10             	add    $0x10,%esp
  105d61:	c9                   	leave  
  105d62:	c3                   	ret    
  105d63:	90                   	nop

00105d64 <screen_width>:
  105d64:	55                   	push   %ebp
  105d65:	89 e5                	mov    %esp,%ebp
  105d67:	83 ec 18             	sub    $0x18,%esp
  105d6a:	6a 08                	push   $0x8
  105d6c:	8d 45 f0             	lea    -0x10(%ebp),%eax
  105d6f:	50                   	push   %eax
  105d70:	6a 01                	push   $0x1
  105d72:	68 04 ac 00 00       	push   $0xac04
  105d77:	e8 28 00 00 00       	call   105da4 <_io_read>
  105d7c:	8b 45 f0             	mov    -0x10(%ebp),%eax
  105d7f:	c9                   	leave  
  105d80:	c3                   	ret    
  105d81:	66 90                	xchg   %ax,%ax
  105d83:	90                   	nop

00105d84 <screen_height>:
  105d84:	55                   	push   %ebp
  105d85:	89 e5                	mov    %esp,%ebp
  105d87:	83 ec 18             	sub    $0x18,%esp
  105d8a:	6a 08                	push   $0x8
  105d8c:	8d 45 f0             	lea    -0x10(%ebp),%eax
  105d8f:	50                   	push   %eax
  105d90:	6a 01                	push   $0x1
  105d92:	68 04 ac 00 00       	push   $0xac04
  105d97:	e8 08 00 00 00       	call   105da4 <_io_read>
  105d9c:	8b 45 f4             	mov    -0xc(%ebp),%eax
  105d9f:	c9                   	leave  
  105da0:	c3                   	ret    
  105da1:	66 90                	xchg   %ax,%ax
  105da3:	90                   	nop

00105da4 <_io_read>:
  105da4:	55                   	push   %ebp
  105da5:	89 e5                	mov    %esp,%ebp
  105da7:	53                   	push   %ebx
  105da8:	8b 45 08             	mov    0x8(%ebp),%eax
  105dab:	8b 55 0c             	mov    0xc(%ebp),%edx
  105dae:	8b 4d 10             	mov    0x10(%ebp),%ecx
  105db1:	8b 5d 14             	mov    0x14(%ebp),%ebx
  105db4:	3d 02 ac 00 00       	cmp    $0xac02,%eax
  105db9:	74 51                	je     105e0c <_io_read+0x68>
  105dbb:	76 2f                	jbe    105dec <_io_read+0x48>
  105dbd:	3d 03 ac 00 00       	cmp    $0xac03,%eax
  105dc2:	74 18                	je     105ddc <_io_read+0x38>
  105dc4:	3d 04 ac 00 00       	cmp    $0xac04,%eax
  105dc9:	75 39                	jne    105e04 <_io_read+0x60>
  105dcb:	89 5d 10             	mov    %ebx,0x10(%ebp)
  105dce:	89 4d 0c             	mov    %ecx,0xc(%ebp)
  105dd1:	89 55 08             	mov    %edx,0x8(%ebp)
  105dd4:	5b                   	pop    %ebx
  105dd5:	5d                   	pop    %ebp
  105dd6:	e9 95 05 00 00       	jmp    106370 <video_read>
  105ddb:	90                   	nop
  105ddc:	89 5d 10             	mov    %ebx,0x10(%ebp)
  105ddf:	89 4d 0c             	mov    %ecx,0xc(%ebp)
  105de2:	89 55 08             	mov    %edx,0x8(%ebp)
  105de5:	5b                   	pop    %ebx
  105de6:	5d                   	pop    %ebp
  105de7:	e9 f0 04 00 00       	jmp    1062dc <timer_read>
  105dec:	83 c0 80             	add    $0xffffff80,%eax
  105def:	75 13                	jne    105e04 <_io_read+0x60>
  105df1:	89 5d 10             	mov    %ebx,0x10(%ebp)
  105df4:	89 4d 0c             	mov    %ecx,0xc(%ebp)
  105df7:	89 55 08             	mov    %edx,0x8(%ebp)
  105dfa:	5b                   	pop    %ebx
  105dfb:	5d                   	pop    %ebp
  105dfc:	e9 53 01 00 00       	jmp    105f54 <pciconf_read>
  105e01:	8d 76 00             	lea    0x0(%esi),%esi
  105e04:	31 c0                	xor    %eax,%eax
  105e06:	5b                   	pop    %ebx
  105e07:	5d                   	pop    %ebp
  105e08:	c3                   	ret    
  105e09:	8d 76 00             	lea    0x0(%esi),%esi
  105e0c:	89 5d 10             	mov    %ebx,0x10(%ebp)
  105e0f:	89 4d 0c             	mov    %ecx,0xc(%ebp)
  105e12:	89 55 08             	mov    %edx,0x8(%ebp)
  105e15:	5b                   	pop    %ebx
  105e16:	5d                   	pop    %ebp
  105e17:	e9 cc 00 00 00       	jmp    105ee8 <input_read>

00105e1c <_io_write>:
  105e1c:	55                   	push   %ebp
  105e1d:	89 e5                	mov    %esp,%ebp
  105e1f:	53                   	push   %ebx
  105e20:	8b 45 08             	mov    0x8(%ebp),%eax
  105e23:	8b 55 0c             	mov    0xc(%ebp),%edx
  105e26:	8b 4d 10             	mov    0x10(%ebp),%ecx
  105e29:	8b 5d 14             	mov    0x14(%ebp),%ebx
  105e2c:	3d 80 00 00 00       	cmp    $0x80,%eax
  105e31:	74 21                	je     105e54 <_io_write+0x38>
  105e33:	3d 04 ac 00 00       	cmp    $0xac04,%eax
  105e38:	75 12                	jne    105e4c <_io_write+0x30>
  105e3a:	89 5d 10             	mov    %ebx,0x10(%ebp)
  105e3d:	89 4d 0c             	mov    %ecx,0xc(%ebp)
  105e40:	89 55 08             	mov    %edx,0x8(%ebp)
  105e43:	5b                   	pop    %ebx
  105e44:	5d                   	pop    %ebp
  105e45:	e9 52 05 00 00       	jmp    10639c <video_write>
  105e4a:	66 90                	xchg   %ax,%ax
  105e4c:	31 c0                	xor    %eax,%eax
  105e4e:	5b                   	pop    %ebx
  105e4f:	5d                   	pop    %ebp
  105e50:	c3                   	ret    
  105e51:	8d 76 00             	lea    0x0(%esi),%esi
  105e54:	89 5d 10             	mov    %ebx,0x10(%ebp)
  105e57:	89 4d 0c             	mov    %ecx,0xc(%ebp)
  105e5a:	89 55 08             	mov    %edx,0x8(%ebp)
  105e5d:	5b                   	pop    %ebx
  105e5e:	5d                   	pop    %ebp
  105e5f:	e9 40 01 00 00       	jmp    105fa4 <pciconf_write>

00105e64 <_ioe_init>:
  105e64:	55                   	push   %ebp
  105e65:	89 e5                	mov    %esp,%ebp
  105e67:	53                   	push   %ebx
  105e68:	50                   	push   %eax
  105e69:	e8 b2 a8 ff ff       	call   100720 <_cpu>
  105e6e:	85 c0                	test   %eax,%eax
  105e70:	75 11                	jne    105e83 <_ioe_init+0x1f>
  105e72:	e8 11 03 00 00       	call   106188 <timer_init>
  105e77:	e8 cc 04 00 00       	call   106348 <vga_init>
  105e7c:	31 c0                	xor    %eax,%eax
  105e7e:	8b 5d fc             	mov    -0x4(%ebp),%ebx
  105e81:	c9                   	leave  
  105e82:	c3                   	ret    
  105e83:	bb ad 64 10 00       	mov    $0x1064ad,%ebx
  105e88:	b8 41 00 00 00       	mov    $0x41,%eax
  105e8d:	83 ec 0c             	sub    $0xc,%esp
  105e90:	50                   	push   %eax
  105e91:	e8 6a a1 ff ff       	call   100000 <_putc>
  105e96:	43                   	inc    %ebx
  105e97:	0f be 03             	movsbl (%ebx),%eax
  105e9a:	83 c4 10             	add    $0x10,%esp
  105e9d:	84 c0                	test   %al,%al
  105e9f:	75 ec                	jne    105e8d <_ioe_init+0x29>
  105ea1:	bb d2 6e 10 00       	mov    $0x106ed2,%ebx
  105ea6:	b8 69 00 00 00       	mov    $0x69,%eax
  105eab:	83 ec 0c             	sub    $0xc,%esp
  105eae:	50                   	push   %eax
  105eaf:	e8 4c a1 ff ff       	call   100000 <_putc>
  105eb4:	43                   	inc    %ebx
  105eb5:	0f be 03             	movsbl (%ebx),%eax
  105eb8:	83 c4 10             	add    $0x10,%esp
  105ebb:	84 c0                	test   %al,%al
  105ebd:	75 ec                	jne    105eab <_ioe_init+0x47>
  105ebf:	bb f0 6e 10 00       	mov    $0x106ef0,%ebx
  105ec4:	b8 20 00 00 00       	mov    $0x20,%eax
  105ec9:	83 ec 0c             	sub    $0xc,%esp
  105ecc:	50                   	push   %eax
  105ecd:	e8 2e a1 ff ff       	call   100000 <_putc>
  105ed2:	43                   	inc    %ebx
  105ed3:	0f be 03             	movsbl (%ebx),%eax
  105ed6:	83 c4 10             	add    $0x10,%esp
  105ed9:	84 c0                	test   %al,%al
  105edb:	75 ec                	jne    105ec9 <_ioe_init+0x65>
  105edd:	83 ec 0c             	sub    $0xc,%esp
  105ee0:	6a 01                	push   $0x1
  105ee2:	e8 29 a1 ff ff       	call   100010 <_halt>
  105ee7:	90                   	nop

00105ee8 <input_read>:
  105ee8:	55                   	push   %ebp
  105ee9:	89 e5                	mov    %esp,%ebp
  105eeb:	53                   	push   %ebx
  105eec:	8b 5d 0c             	mov    0xc(%ebp),%ebx
  105eef:	ba 64 00 00 00       	mov    $0x64,%edx
  105ef4:	ec                   	in     (%dx),%al
  105ef5:	c7 03 00 00 00 00    	movl   $0x0,(%ebx)
  105efb:	c7 43 04 00 00 00 00 	movl   $0x0,0x4(%ebx)
  105f02:	a8 01                	test   $0x1,%al
  105f04:	74 31                	je     105f37 <input_read+0x4f>
  105f06:	a8 20                	test   $0x20,%al
  105f08:	75 2d                	jne    105f37 <input_read+0x4f>
  105f0a:	ba 60 00 00 00       	mov    $0x60,%edx
  105f0f:	ec                   	in     (%dx),%al
  105f10:	0f b6 c0             	movzbl %al,%eax
  105f13:	31 d2                	xor    %edx,%edx
  105f15:	8d 76 00             	lea    0x0(%esi),%esi
  105f18:	42                   	inc    %edx
  105f19:	83 fa 53             	cmp    $0x53,%edx
  105f1c:	74 19                	je     105f37 <input_read+0x4f>
  105f1e:	8b 0c 95 20 6f 10 00 	mov    0x106f20(,%edx,4),%ecx
  105f25:	85 c9                	test   %ecx,%ecx
  105f27:	74 ef                	je     105f18 <input_read+0x30>
  105f29:	39 c1                	cmp    %eax,%ecx
  105f2b:	74 13                	je     105f40 <input_read+0x58>
  105f2d:	83 e9 80             	sub    $0xffffff80,%ecx
  105f30:	39 c1                	cmp    %eax,%ecx
  105f32:	75 e4                	jne    105f18 <input_read+0x30>
  105f34:	89 53 04             	mov    %edx,0x4(%ebx)
  105f37:	b8 08 00 00 00       	mov    $0x8,%eax
  105f3c:	5b                   	pop    %ebx
  105f3d:	5d                   	pop    %ebp
  105f3e:	c3                   	ret    
  105f3f:	90                   	nop
  105f40:	c7 03 01 00 00 00    	movl   $0x1,(%ebx)
  105f46:	89 53 04             	mov    %edx,0x4(%ebx)
  105f49:	b8 08 00 00 00       	mov    $0x8,%eax
  105f4e:	5b                   	pop    %ebx
  105f4f:	5d                   	pop    %ebp
  105f50:	c3                   	ret    
  105f51:	66 90                	xchg   %ax,%ax
  105f53:	90                   	nop

00105f54 <pciconf_read>:
  105f54:	55                   	push   %ebp
  105f55:	89 e5                	mov    %esp,%ebp
  105f57:	8b 4d 10             	mov    0x10(%ebp),%ecx
  105f5a:	ba f8 0c 00 00       	mov    $0xcf8,%edx
  105f5f:	8b 45 08             	mov    0x8(%ebp),%eax
  105f62:	ef                   	out    %eax,(%dx)
  105f63:	83 f9 02             	cmp    $0x2,%ecx
  105f66:	74 1c                	je     105f84 <pciconf_read+0x30>
  105f68:	83 f9 04             	cmp    $0x4,%ecx
  105f6b:	74 25                	je     105f92 <pciconf_read+0x3e>
  105f6d:	83 f9 01             	cmp    $0x1,%ecx
  105f70:	74 06                	je     105f78 <pciconf_read+0x24>
  105f72:	89 c8                	mov    %ecx,%eax
  105f74:	5d                   	pop    %ebp
  105f75:	c3                   	ret    
  105f76:	66 90                	xchg   %ax,%ax
  105f78:	89 c2                	mov    %eax,%edx
  105f7a:	83 e2 03             	and    $0x3,%edx
  105f7d:	81 c2 fc 0c 00 00    	add    $0xcfc,%edx
  105f83:	ec                   	in     (%dx),%al
  105f84:	8b 55 08             	mov    0x8(%ebp),%edx
  105f87:	83 e2 02             	and    $0x2,%edx
  105f8a:	81 c2 fc 0c 00 00    	add    $0xcfc,%edx
  105f90:	66 ed                	in     (%dx),%ax
  105f92:	ba fc 0c 00 00       	mov    $0xcfc,%edx
  105f97:	ed                   	in     (%dx),%eax
  105f98:	8b 55 0c             	mov    0xc(%ebp),%edx
  105f9b:	89 02                	mov    %eax,(%edx)
  105f9d:	89 c8                	mov    %ecx,%eax
  105f9f:	5d                   	pop    %ebp
  105fa0:	c3                   	ret    
  105fa1:	66 90                	xchg   %ax,%ax
  105fa3:	90                   	nop

00105fa4 <pciconf_write>:
  105fa4:	55                   	push   %ebp
  105fa5:	89 e5                	mov    %esp,%ebp
  105fa7:	53                   	push   %ebx
  105fa8:	8b 5d 0c             	mov    0xc(%ebp),%ebx
  105fab:	8b 4d 10             	mov    0x10(%ebp),%ecx
  105fae:	ba f8 0c 00 00       	mov    $0xcf8,%edx
  105fb3:	8b 45 08             	mov    0x8(%ebp),%eax
  105fb6:	ef                   	out    %eax,(%dx)
  105fb7:	83 f9 02             	cmp    $0x2,%ecx
  105fba:	74 1e                	je     105fda <pciconf_write+0x36>
  105fbc:	83 f9 04             	cmp    $0x4,%ecx
  105fbf:	74 2a                	je     105feb <pciconf_write+0x47>
  105fc1:	83 f9 01             	cmp    $0x1,%ecx
  105fc4:	74 06                	je     105fcc <pciconf_write+0x28>
  105fc6:	89 c8                	mov    %ecx,%eax
  105fc8:	5b                   	pop    %ebx
  105fc9:	5d                   	pop    %ebp
  105fca:	c3                   	ret    
  105fcb:	90                   	nop
  105fcc:	89 c2                	mov    %eax,%edx
  105fce:	83 e2 03             	and    $0x3,%edx
  105fd1:	81 c2 fc 0c 00 00    	add    $0xcfc,%edx
  105fd7:	8a 03                	mov    (%ebx),%al
  105fd9:	ee                   	out    %al,(%dx)
  105fda:	66 8b 03             	mov    (%ebx),%ax
  105fdd:	8b 55 08             	mov    0x8(%ebp),%edx
  105fe0:	83 e2 02             	and    $0x2,%edx
  105fe3:	81 c2 fc 0c 00 00    	add    $0xcfc,%edx
  105fe9:	66 ef                	out    %ax,(%dx)
  105feb:	8b 03                	mov    (%ebx),%eax
  105fed:	ba fc 0c 00 00       	mov    $0xcfc,%edx
  105ff2:	ef                   	out    %eax,(%dx)
  105ff3:	89 c8                	mov    %ecx,%eax
  105ff5:	5b                   	pop    %ebx
  105ff6:	5d                   	pop    %ebp
  105ff7:	c3                   	ret    

00105ff8 <wait_sec>:
  105ff8:	55                   	push   %ebp
  105ff9:	89 e5                	mov    %esp,%ebp
  105ffb:	56                   	push   %esi
  105ffc:	53                   	push   %ebx
  105ffd:	83 ec 10             	sub    $0x10,%esp
  106000:	31 f6                	xor    %esi,%esi
  106002:	bb 70 00 00 00       	mov    $0x70,%ebx
  106007:	b9 71 00 00 00       	mov    $0x71,%ecx
  10600c:	89 f0                	mov    %esi,%eax
  10600e:	89 da                	mov    %ebx,%edx
  106010:	ee                   	out    %al,(%dx)
  106011:	89 ca                	mov    %ecx,%edx
  106013:	ec                   	in     (%dx),%al
  106014:	0f b6 d0             	movzbl %al,%edx
  106017:	c1 fa 04             	sar    $0x4,%edx
  10601a:	8d 14 92             	lea    (%edx,%edx,4),%edx
  10601d:	01 d2                	add    %edx,%edx
  10601f:	83 e0 0f             	and    $0xf,%eax
  106022:	01 c2                	add    %eax,%edx
  106024:	89 55 ec             	mov    %edx,-0x14(%ebp)
  106027:	c7 45 f0 00 00 00 00 	movl   $0x0,-0x10(%ebp)
  10602e:	8b 45 f0             	mov    -0x10(%ebp),%eax
  106031:	3d 0f 27 00 00       	cmp    $0x270f,%eax
  106036:	7f 11                	jg     106049 <wait_sec+0x51>
  106038:	8b 45 f0             	mov    -0x10(%ebp),%eax
  10603b:	40                   	inc    %eax
  10603c:	89 45 f0             	mov    %eax,-0x10(%ebp)
  10603f:	8b 45 f0             	mov    -0x10(%ebp),%eax
  106042:	3d 0f 27 00 00       	cmp    $0x270f,%eax
  106047:	7e ef                	jle    106038 <wait_sec+0x40>
  106049:	89 f0                	mov    %esi,%eax
  10604b:	89 da                	mov    %ebx,%edx
  10604d:	ee                   	out    %al,(%dx)
  10604e:	89 ca                	mov    %ecx,%edx
  106050:	ec                   	in     (%dx),%al
  106051:	0f b6 d0             	movzbl %al,%edx
  106054:	c1 fa 04             	sar    $0x4,%edx
  106057:	8d 14 92             	lea    (%edx,%edx,4),%edx
  10605a:	01 d2                	add    %edx,%edx
  10605c:	83 e0 0f             	and    $0xf,%eax
  10605f:	01 c2                	add    %eax,%edx
  106061:	89 55 f4             	mov    %edx,-0xc(%ebp)
  106064:	8b 55 ec             	mov    -0x14(%ebp),%edx
  106067:	8b 45 f4             	mov    -0xc(%ebp),%eax
  10606a:	39 c2                	cmp    %eax,%edx
  10606c:	74 9e                	je     10600c <wait_sec+0x14>
  10606e:	83 c4 10             	add    $0x10,%esp
  106071:	5b                   	pop    %ebx
  106072:	5e                   	pop    %esi
  106073:	5d                   	pop    %ebp
  106074:	c3                   	ret    
  106075:	66 90                	xchg   %ax,%ax
  106077:	90                   	nop

00106078 <get_date>:
  106078:	55                   	push   %ebp
  106079:	89 e5                	mov    %esp,%ebp
  10607b:	57                   	push   %edi
  10607c:	56                   	push   %esi
  10607d:	53                   	push   %ebx
  10607e:	83 ec 08             	sub    $0x8,%esp
  106081:	89 c7                	mov    %eax,%edi
  106083:	be 70 00 00 00       	mov    $0x70,%esi
  106088:	31 c0                	xor    %eax,%eax
  10608a:	89 f2                	mov    %esi,%edx
  10608c:	ee                   	out    %al,(%dx)
  10608d:	b9 71 00 00 00       	mov    $0x71,%ecx
  106092:	89 ca                	mov    %ecx,%edx
  106094:	ec                   	in     (%dx),%al
  106095:	88 c3                	mov    %al,%bl
  106097:	b0 02                	mov    $0x2,%al
  106099:	89 f2                	mov    %esi,%edx
  10609b:	ee                   	out    %al,(%dx)
  10609c:	89 ca                	mov    %ecx,%edx
  10609e:	ec                   	in     (%dx),%al
  10609f:	88 45 f3             	mov    %al,-0xd(%ebp)
  1060a2:	b0 04                	mov    $0x4,%al
  1060a4:	89 f2                	mov    %esi,%edx
  1060a6:	ee                   	out    %al,(%dx)
  1060a7:	89 ca                	mov    %ecx,%edx
  1060a9:	ec                   	in     (%dx),%al
  1060aa:	88 45 f2             	mov    %al,-0xe(%ebp)
  1060ad:	b0 07                	mov    $0x7,%al
  1060af:	89 f2                	mov    %esi,%edx
  1060b1:	ee                   	out    %al,(%dx)
  1060b2:	89 ca                	mov    %ecx,%edx
  1060b4:	ec                   	in     (%dx),%al
  1060b5:	88 45 f1             	mov    %al,-0xf(%ebp)
  1060b8:	b0 08                	mov    $0x8,%al
  1060ba:	89 f2                	mov    %esi,%edx
  1060bc:	ee                   	out    %al,(%dx)
  1060bd:	89 ca                	mov    %ecx,%edx
  1060bf:	ec                   	in     (%dx),%al
  1060c0:	88 45 f0             	mov    %al,-0x10(%ebp)
  1060c3:	b0 09                	mov    $0x9,%al
  1060c5:	89 f2                	mov    %esi,%edx
  1060c7:	ee                   	out    %al,(%dx)
  1060c8:	89 ca                	mov    %ecx,%edx
  1060ca:	ec                   	in     (%dx),%al
  1060cb:	88 45 ef             	mov    %al,-0x11(%ebp)
  1060ce:	31 c0                	xor    %eax,%eax
  1060d0:	89 f2                	mov    %esi,%edx
  1060d2:	ee                   	out    %al,(%dx)
  1060d3:	89 ca                	mov    %ecx,%edx
  1060d5:	ec                   	in     (%dx),%al
  1060d6:	0f b6 d0             	movzbl %al,%edx
  1060d9:	c1 fa 04             	sar    $0x4,%edx
  1060dc:	8d 0c 92             	lea    (%edx,%edx,4),%ecx
  1060df:	01 c9                	add    %ecx,%ecx
  1060e1:	83 e0 0f             	and    $0xf,%eax
  1060e4:	01 c8                	add    %ecx,%eax
  1060e6:	0f b6 d3             	movzbl %bl,%edx
  1060e9:	c1 fa 04             	sar    $0x4,%edx
  1060ec:	8d 14 92             	lea    (%edx,%edx,4),%edx
  1060ef:	01 d2                	add    %edx,%edx
  1060f1:	83 e3 0f             	and    $0xf,%ebx
  1060f4:	01 d3                	add    %edx,%ebx
  1060f6:	39 d8                	cmp    %ebx,%eax
  1060f8:	75 8e                	jne    106088 <get_date+0x10>
  1060fa:	89 47 14             	mov    %eax,0x14(%edi)
  1060fd:	0f b6 45 f3          	movzbl -0xd(%ebp),%eax
  106101:	89 c3                	mov    %eax,%ebx
  106103:	c1 f8 04             	sar    $0x4,%eax
  106106:	8d 04 80             	lea    (%eax,%eax,4),%eax
  106109:	8d 14 00             	lea    (%eax,%eax,1),%edx
  10610c:	89 d8                	mov    %ebx,%eax
  10610e:	83 e0 0f             	and    $0xf,%eax
  106111:	01 d0                	add    %edx,%eax
  106113:	89 47 10             	mov    %eax,0x10(%edi)
  106116:	0f b6 45 f2          	movzbl -0xe(%ebp),%eax
  10611a:	89 c3                	mov    %eax,%ebx
  10611c:	c1 f8 04             	sar    $0x4,%eax
  10611f:	8d 04 80             	lea    (%eax,%eax,4),%eax
  106122:	8d 14 00             	lea    (%eax,%eax,1),%edx
  106125:	89 d8                	mov    %ebx,%eax
  106127:	83 e0 0f             	and    $0xf,%eax
  10612a:	01 d0                	add    %edx,%eax
  10612c:	89 47 0c             	mov    %eax,0xc(%edi)
  10612f:	0f b6 45 f1          	movzbl -0xf(%ebp),%eax
  106133:	89 c3                	mov    %eax,%ebx
  106135:	c1 f8 04             	sar    $0x4,%eax
  106138:	8d 04 80             	lea    (%eax,%eax,4),%eax
  10613b:	8d 14 00             	lea    (%eax,%eax,1),%edx
  10613e:	89 d8                	mov    %ebx,%eax
  106140:	83 e0 0f             	and    $0xf,%eax
  106143:	01 d0                	add    %edx,%eax
  106145:	89 47 08             	mov    %eax,0x8(%edi)
  106148:	0f b6 45 f0          	movzbl -0x10(%ebp),%eax
  10614c:	89 c3                	mov    %eax,%ebx
  10614e:	c1 f8 04             	sar    $0x4,%eax
  106151:	8d 04 80             	lea    (%eax,%eax,4),%eax
  106154:	8d 14 00             	lea    (%eax,%eax,1),%edx
  106157:	89 d8                	mov    %ebx,%eax
  106159:	83 e0 0f             	and    $0xf,%eax
  10615c:	01 d0                	add    %edx,%eax
  10615e:	89 47 04             	mov    %eax,0x4(%edi)
  106161:	0f b6 45 ef          	movzbl -0x11(%ebp),%eax
  106165:	89 c3                	mov    %eax,%ebx
  106167:	c1 f8 04             	sar    $0x4,%eax
  10616a:	8d 04 80             	lea    (%eax,%eax,4),%eax
  10616d:	8d 14 00             	lea    (%eax,%eax,1),%edx
  106170:	89 d8                	mov    %ebx,%eax
  106172:	83 e0 0f             	and    $0xf,%eax
  106175:	8d 84 02 d0 07 00 00 	lea    0x7d0(%edx,%eax,1),%eax
  10617c:	89 07                	mov    %eax,(%edi)
  10617e:	83 c4 08             	add    $0x8,%esp
  106181:	5b                   	pop    %ebx
  106182:	5e                   	pop    %esi
  106183:	5f                   	pop    %edi
  106184:	5d                   	pop    %ebp
  106185:	c3                   	ret    
  106186:	66 90                	xchg   %ax,%ax

00106188 <timer_init>:
  106188:	55                   	push   %ebp
  106189:	89 e5                	mov    %esp,%ebp
  10618b:	57                   	push   %edi
  10618c:	56                   	push   %esi
  10618d:	53                   	push   %ebx
  10618e:	83 ec 1c             	sub    $0x1c,%esp
  106191:	e8 62 fe ff ff       	call   105ff8 <wait_sec>
  106196:	0f 31                	rdtsc  
  106198:	89 55 e4             	mov    %edx,-0x1c(%ebp)
  10619b:	89 45 e8             	mov    %eax,-0x18(%ebp)
  10619e:	be 70 00 00 00       	mov    $0x70,%esi
  1061a3:	b0 04                	mov    $0x4,%al
  1061a5:	89 f2                	mov    %esi,%edx
  1061a7:	ee                   	out    %al,(%dx)
  1061a8:	bb 71 00 00 00       	mov    $0x71,%ebx
  1061ad:	89 da                	mov    %ebx,%edx
  1061af:	ec                   	in     (%dx),%al
  1061b0:	89 c7                	mov    %eax,%edi
  1061b2:	b0 02                	mov    $0x2,%al
  1061b4:	89 f2                	mov    %esi,%edx
  1061b6:	ee                   	out    %al,(%dx)
  1061b7:	89 da                	mov    %ebx,%edx
  1061b9:	ec                   	in     (%dx),%al
  1061ba:	88 c1                	mov    %al,%cl
  1061bc:	31 c0                	xor    %eax,%eax
  1061be:	89 f2                	mov    %esi,%edx
  1061c0:	ee                   	out    %al,(%dx)
  1061c1:	89 da                	mov    %ebx,%edx
  1061c3:	ec                   	in     (%dx),%al
  1061c4:	89 fa                	mov    %edi,%edx
  1061c6:	0f b6 d2             	movzbl %dl,%edx
  1061c9:	c1 fa 04             	sar    $0x4,%edx
  1061cc:	8d 14 92             	lea    (%edx,%edx,4),%edx
  1061cf:	01 d2                	add    %edx,%edx
  1061d1:	83 e7 0f             	and    $0xf,%edi
  1061d4:	01 d7                	add    %edx,%edi
  1061d6:	8d 14 3f             	lea    (%edi,%edi,1),%edx
  1061d9:	01 fa                	add    %edi,%edx
  1061db:	01 d2                	add    %edx,%edx
  1061dd:	01 fa                	add    %edi,%edx
  1061df:	c1 e2 05             	shl    $0x5,%edx
  1061e2:	01 d7                	add    %edx,%edi
  1061e4:	c1 e7 04             	shl    $0x4,%edi
  1061e7:	0f b6 d1             	movzbl %cl,%edx
  1061ea:	c1 fa 04             	sar    $0x4,%edx
  1061ed:	8d 14 92             	lea    (%edx,%edx,4),%edx
  1061f0:	01 d2                	add    %edx,%edx
  1061f2:	83 e1 0f             	and    $0xf,%ecx
  1061f5:	01 d1                	add    %edx,%ecx
  1061f7:	8d 14 09             	lea    (%ecx,%ecx,1),%edx
  1061fa:	01 d1                	add    %edx,%ecx
  1061fc:	8d 14 89             	lea    (%ecx,%ecx,4),%edx
  1061ff:	8d 0c 97             	lea    (%edi,%edx,4),%ecx
  106202:	0f b6 d0             	movzbl %al,%edx
  106205:	c1 fa 04             	sar    $0x4,%edx
  106208:	8d 14 92             	lea    (%edx,%edx,4),%edx
  10620b:	01 d2                	add    %edx,%edx
  10620d:	83 e0 0f             	and    $0xf,%eax
  106210:	01 d0                	add    %edx,%eax
  106212:	8d 3c 01             	lea    (%ecx,%eax,1),%edi
  106215:	e8 de fd ff ff       	call   105ff8 <wait_sec>
  10621a:	0f 31                	rdtsc  
  10621c:	89 55 dc             	mov    %edx,-0x24(%ebp)
  10621f:	89 45 e0             	mov    %eax,-0x20(%ebp)
  106222:	b0 04                	mov    $0x4,%al
  106224:	89 f2                	mov    %esi,%edx
  106226:	ee                   	out    %al,(%dx)
  106227:	89 da                	mov    %ebx,%edx
  106229:	ec                   	in     (%dx),%al
  10622a:	88 45 ec             	mov    %al,-0x14(%ebp)
  10622d:	b0 02                	mov    $0x2,%al
  10622f:	89 f2                	mov    %esi,%edx
  106231:	ee                   	out    %al,(%dx)
  106232:	89 da                	mov    %ebx,%edx
  106234:	ec                   	in     (%dx),%al
  106235:	88 c1                	mov    %al,%cl
  106237:	31 c0                	xor    %eax,%eax
  106239:	89 f2                	mov    %esi,%edx
  10623b:	ee                   	out    %al,(%dx)
  10623c:	89 da                	mov    %ebx,%edx
  10623e:	ec                   	in     (%dx),%al
  10623f:	0f b6 55 ec          	movzbl -0x14(%ebp),%edx
  106243:	c1 fa 04             	sar    $0x4,%edx
  106246:	8d 1c 92             	lea    (%edx,%edx,4),%ebx
  106249:	01 db                	add    %ebx,%ebx
  10624b:	8b 75 ec             	mov    -0x14(%ebp),%esi
  10624e:	83 e6 0f             	and    $0xf,%esi
  106251:	01 f3                	add    %esi,%ebx
  106253:	8d 14 1b             	lea    (%ebx,%ebx,1),%edx
  106256:	01 da                	add    %ebx,%edx
  106258:	01 d2                	add    %edx,%edx
  10625a:	01 da                	add    %ebx,%edx
  10625c:	c1 e2 05             	shl    $0x5,%edx
  10625f:	01 da                	add    %ebx,%edx
  106261:	c1 e2 04             	shl    $0x4,%edx
  106264:	0f b6 d9             	movzbl %cl,%ebx
  106267:	c1 fb 04             	sar    $0x4,%ebx
  10626a:	8d 1c 9b             	lea    (%ebx,%ebx,4),%ebx
  10626d:	01 db                	add    %ebx,%ebx
  10626f:	83 e1 0f             	and    $0xf,%ecx
  106272:	01 d9                	add    %ebx,%ecx
  106274:	8d 1c 09             	lea    (%ecx,%ecx,1),%ebx
  106277:	01 d9                	add    %ebx,%ecx
  106279:	8d 0c 89             	lea    (%ecx,%ecx,4),%ecx
  10627c:	8d 0c 8a             	lea    (%edx,%ecx,4),%ecx
  10627f:	0f b6 d0             	movzbl %al,%edx
  106282:	c1 fa 04             	sar    $0x4,%edx
  106285:	8d 14 92             	lea    (%edx,%edx,4),%edx
  106288:	01 d2                	add    %edx,%edx
  10628a:	83 e0 0f             	and    $0xf,%eax
  10628d:	01 d0                	add    %edx,%eax
  10628f:	8d 34 01             	lea    (%ecx,%eax,1),%esi
  106292:	31 c0                	xor    %eax,%eax
  106294:	39 f7                	cmp    %esi,%edi
  106296:	7d 1d                	jge    1062b5 <timer_init+0x12d>
  106298:	8b 45 e0             	mov    -0x20(%ebp),%eax
  10629b:	8b 55 dc             	mov    -0x24(%ebp),%edx
  10629e:	8b 4d e8             	mov    -0x18(%ebp),%ecx
  1062a1:	8b 5d e4             	mov    -0x1c(%ebp),%ebx
  1062a4:	29 c8                	sub    %ecx,%eax
  1062a6:	19 da                	sbb    %ebx,%edx
  1062a8:	0f ac d0 14          	shrd   $0x14,%edx,%eax
  1062ac:	c1 ea 14             	shr    $0x14,%edx
  1062af:	29 fe                	sub    %edi,%esi
  1062b1:	31 d2                	xor    %edx,%edx
  1062b3:	f7 f6                	div    %esi
  1062b5:	a3 f8 4e 11 00       	mov    %eax,0x114ef8
  1062ba:	b8 60 5e 11 00       	mov    $0x115e60,%eax
  1062bf:	e8 b4 fd ff ff       	call   106078 <get_date>
  1062c4:	0f 31                	rdtsc  
  1062c6:	a3 68 ac 13 00       	mov    %eax,0x13ac68
  1062cb:	89 15 6c ac 13 00    	mov    %edx,0x13ac6c
  1062d1:	83 c4 1c             	add    $0x1c,%esp
  1062d4:	5b                   	pop    %ebx
  1062d5:	5e                   	pop    %esi
  1062d6:	5f                   	pop    %edi
  1062d7:	5d                   	pop    %ebp
  1062d8:	c3                   	ret    
  1062d9:	66 90                	xchg   %ax,%ax
  1062db:	90                   	nop

001062dc <timer_read>:
  1062dc:	55                   	push   %ebp
  1062dd:	89 e5                	mov    %esp,%ebp
  1062df:	53                   	push   %ebx
  1062e0:	51                   	push   %ecx
  1062e1:	83 7d 08 01          	cmpl   $0x1,0x8(%ebp)
  1062e5:	74 21                	je     106308 <timer_read+0x2c>
  1062e7:	83 7d 08 02          	cmpl   $0x2,0x8(%ebp)
  1062eb:	74 07                	je     1062f4 <timer_read+0x18>
  1062ed:	31 c0                	xor    %eax,%eax
  1062ef:	5a                   	pop    %edx
  1062f0:	5b                   	pop    %ebx
  1062f1:	5d                   	pop    %ebp
  1062f2:	c3                   	ret    
  1062f3:	90                   	nop
  1062f4:	8b 45 0c             	mov    0xc(%ebp),%eax
  1062f7:	e8 7c fd ff ff       	call   106078 <get_date>
  1062fc:	b8 18 00 00 00       	mov    $0x18,%eax
  106301:	5a                   	pop    %edx
  106302:	5b                   	pop    %ebx
  106303:	5d                   	pop    %ebp
  106304:	c3                   	ret    
  106305:	8d 76 00             	lea    0x0(%esi),%esi
  106308:	0f 31                	rdtsc  
  10630a:	2b 05 68 ac 13 00    	sub    0x13ac68,%eax
  106310:	1b 15 6c ac 13 00    	sbb    0x13ac6c,%edx
  106316:	0f ac d0 14          	shrd   $0x14,%edx,%eax
  10631a:	c1 ea 14             	shr    $0x14,%edx
  10631d:	8d 04 80             	lea    (%eax,%eax,4),%eax
  106320:	8d 04 80             	lea    (%eax,%eax,4),%eax
  106323:	8d 04 80             	lea    (%eax,%eax,4),%eax
  106326:	c1 e0 03             	shl    $0x3,%eax
  106329:	31 d2                	xor    %edx,%edx
  10632b:	f7 35 f8 4e 11 00    	divl   0x114ef8
  106331:	8b 5d 0c             	mov    0xc(%ebp),%ebx
  106334:	c7 03 00 00 00 00    	movl   $0x0,(%ebx)
  10633a:	89 43 04             	mov    %eax,0x4(%ebx)
  10633d:	b8 08 00 00 00       	mov    $0x8,%eax
  106342:	5a                   	pop    %edx
  106343:	5b                   	pop    %ebx
  106344:	5d                   	pop    %ebp
  106345:	c3                   	ret    
  106346:	66 90                	xchg   %ax,%ax

00106348 <vga_init>:
  106348:	55                   	push   %ebp
  106349:	89 e5                	mov    %esp,%ebp
  10634b:	0f b7 05 12 40 00 00 	movzwl 0x4012,%eax
  106352:	a3 7c 5e 11 00       	mov    %eax,0x115e7c
  106357:	0f b7 05 14 40 00 00 	movzwl 0x4014,%eax
  10635e:	a3 78 5e 11 00       	mov    %eax,0x115e78
  106363:	a1 28 40 00 00       	mov    0x4028,%eax
  106368:	a3 80 5e 11 00       	mov    %eax,0x115e80
  10636d:	5d                   	pop    %ebp
  10636e:	c3                   	ret    
  10636f:	90                   	nop

00106370 <video_read>:
  106370:	55                   	push   %ebp
  106371:	89 e5                	mov    %esp,%ebp
  106373:	83 7d 08 01          	cmpl   $0x1,0x8(%ebp)
  106377:	74 07                	je     106380 <video_read+0x10>
  106379:	31 c0                	xor    %eax,%eax
  10637b:	5d                   	pop    %ebp
  10637c:	c3                   	ret    
  10637d:	8d 76 00             	lea    0x0(%esi),%esi
  106380:	a1 7c 5e 11 00       	mov    0x115e7c,%eax
  106385:	8b 55 0c             	mov    0xc(%ebp),%edx
  106388:	89 02                	mov    %eax,(%edx)
  10638a:	a1 78 5e 11 00       	mov    0x115e78,%eax
  10638f:	89 42 04             	mov    %eax,0x4(%edx)
  106392:	b8 08 00 00 00       	mov    $0x8,%eax
  106397:	5d                   	pop    %ebp
  106398:	c3                   	ret    
  106399:	66 90                	xchg   %ax,%ax
  10639b:	90                   	nop

0010639c <video_write>:
  10639c:	55                   	push   %ebp
  10639d:	89 e5                	mov    %esp,%ebp
  10639f:	57                   	push   %edi
  1063a0:	56                   	push   %esi
  1063a1:	53                   	push   %ebx
  1063a2:	83 ec 20             	sub    $0x20,%esp
  1063a5:	8b 45 0c             	mov    0xc(%ebp),%eax
  1063a8:	83 7d 08 02          	cmpl   $0x2,0x8(%ebp)
  1063ac:	0f 85 de 00 00 00    	jne    106490 <video_write+0xf4>
  1063b2:	8b 08                	mov    (%eax),%ecx
  1063b4:	8b 58 04             	mov    0x4(%eax),%ebx
  1063b7:	8b 50 0c             	mov    0xc(%eax),%edx
  1063ba:	8b 78 10             	mov    0x10(%eax),%edi
  1063bd:	8b 40 08             	mov    0x8(%eax),%eax
  1063c0:	89 45 ec             	mov    %eax,-0x14(%ebp)
  1063c3:	a1 7c 5e 11 00       	mov    0x115e7c,%eax
  1063c8:	8d 34 11             	lea    (%ecx,%edx,1),%esi
  1063cb:	39 c6                	cmp    %eax,%esi
  1063cd:	0f 8d b1 00 00 00    	jge    106484 <video_write+0xe8>
  1063d3:	89 55 d8             	mov    %edx,-0x28(%ebp)
  1063d6:	85 ff                	test   %edi,%edi
  1063d8:	0f 8e 97 00 00 00    	jle    106475 <video_write+0xd9>
  1063de:	8b 35 78 5e 11 00    	mov    0x115e78,%esi
  1063e4:	89 75 e8             	mov    %esi,-0x18(%ebp)
  1063e7:	8d 34 95 00 00 00 00 	lea    0x0(,%edx,4),%esi
  1063ee:	89 75 e4             	mov    %esi,-0x1c(%ebp)
  1063f1:	8d 14 00             	lea    (%eax,%eax,1),%edx
  1063f4:	8d 34 02             	lea    (%edx,%eax,1),%esi
  1063f7:	89 75 dc             	mov    %esi,-0x24(%ebp)
  1063fa:	0f af c3             	imul   %ebx,%eax
  1063fd:	01 c1                	add    %eax,%ecx
  1063ff:	8d 04 09             	lea    (%ecx,%ecx,1),%eax
  106402:	01 c1                	add    %eax,%ecx
  106404:	8b 35 80 5e 11 00    	mov    0x115e80,%esi
  10640a:	01 ce                	add    %ecx,%esi
  10640c:	89 f9                	mov    %edi,%ecx
  10640e:	01 d9                	add    %ebx,%ecx
  106410:	89 4d e0             	mov    %ecx,-0x20(%ebp)
  106413:	8b 4d d8             	mov    -0x28(%ebp),%ecx
  106416:	89 c8                	mov    %ecx,%eax
  106418:	01 c8                	add    %ecx,%eax
  10641a:	01 c8                	add    %ecx,%eax
  10641c:	89 45 d4             	mov    %eax,-0x2c(%ebp)
  10641f:	89 df                	mov    %ebx,%edi
  106421:	eb 10                	jmp    106433 <video_write+0x97>
  106423:	90                   	nop
  106424:	8b 4d e4             	mov    -0x1c(%ebp),%ecx
  106427:	01 4d ec             	add    %ecx,-0x14(%ebp)
  10642a:	47                   	inc    %edi
  10642b:	03 75 dc             	add    -0x24(%ebp),%esi
  10642e:	3b 7d e0             	cmp    -0x20(%ebp),%edi
  106431:	74 42                	je     106475 <video_write+0xd9>
  106433:	39 7d e8             	cmp    %edi,-0x18(%ebp)
  106436:	7e ec                	jle    106424 <video_write+0x88>
  106438:	89 f0                	mov    %esi,%eax
  10643a:	8b 55 d8             	mov    -0x28(%ebp),%edx
  10643d:	85 d2                	test   %edx,%edx
  10643f:	7e e3                	jle    106424 <video_write+0x88>
  106441:	8b 4d ec             	mov    -0x14(%ebp),%ecx
  106444:	8b 5d d4             	mov    -0x2c(%ebp),%ebx
  106447:	01 f3                	add    %esi,%ebx
  106449:	89 5d f0             	mov    %ebx,-0x10(%ebp)
  10644c:	8b 11                	mov    (%ecx),%edx
  10644e:	89 d3                	mov    %edx,%ebx
  106450:	c1 eb 10             	shr    $0x10,%ebx
  106453:	88 58 02             	mov    %bl,0x2(%eax)
  106456:	88 70 01             	mov    %dh,0x1(%eax)
  106459:	88 10                	mov    %dl,(%eax)
  10645b:	83 c0 03             	add    $0x3,%eax
  10645e:	83 c1 04             	add    $0x4,%ecx
  106461:	3b 45 f0             	cmp    -0x10(%ebp),%eax
  106464:	75 e6                	jne    10644c <video_write+0xb0>
  106466:	8b 4d e4             	mov    -0x1c(%ebp),%ecx
  106469:	01 4d ec             	add    %ecx,-0x14(%ebp)
  10646c:	47                   	inc    %edi
  10646d:	03 75 dc             	add    -0x24(%ebp),%esi
  106470:	3b 7d e0             	cmp    -0x20(%ebp),%edi
  106473:	75 be                	jne    106433 <video_write+0x97>
  106475:	b8 18 00 00 00       	mov    $0x18,%eax
  10647a:	83 c4 20             	add    $0x20,%esp
  10647d:	5b                   	pop    %ebx
  10647e:	5e                   	pop    %esi
  10647f:	5f                   	pop    %edi
  106480:	5d                   	pop    %ebp
  106481:	c3                   	ret    
  106482:	66 90                	xchg   %ax,%ax
  106484:	89 c6                	mov    %eax,%esi
  106486:	29 ce                	sub    %ecx,%esi
  106488:	89 75 d8             	mov    %esi,-0x28(%ebp)
  10648b:	e9 46 ff ff ff       	jmp    1063d6 <video_write+0x3a>
  106490:	31 c0                	xor    %eax,%eax
  106492:	83 c4 20             	add    $0x20,%esp
  106495:	5b                   	pop    %ebx
  106496:	5e                   	pop    %esi
  106497:	5f                   	pop    %edi
  106498:	5d                   	pop    %ebp
  106499:	c3                   	ret    
